ARM GAS  C:\Users\Kotori\AppData\Local\Temp\cccJuZm6.s 			page 1


   1              		.syntax unified
   2              		.cpu cortex-m3
   3              		.fpu softvfp
   4              		.eabi_attribute 20, 1
   5              		.eabi_attribute 21, 1
   6              		.eabi_attribute 23, 3
   7              		.eabi_attribute 24, 1
   8              		.eabi_attribute 25, 1
   9              		.eabi_attribute 26, 1
  10              		.eabi_attribute 30, 1
  11              		.eabi_attribute 34, 1
  12              		.eabi_attribute 18, 4
  13              		.thumb
  14              		.syntax unified
  15              		.file	"cyfitter_cfg.c"
  16              		.text
  17              	.Ltext0:
  18              		.cfi_sections	.debug_frame
  19              		.section	.text.CyClockStartupError,"ax",%progbits
  20              		.align	2
  21              		.thumb
  22              		.thumb_func
  23              		.type	CyClockStartupError, %function
  24              	CyClockStartupError:
  25              	.LFB3:
  26              		.file 1 "Generated_Source\\PSoC5\\cyfitter_cfg.c"
   1:Generated_Source\PSoC5/cyfitter_cfg.c **** 
   2:Generated_Source\PSoC5/cyfitter_cfg.c **** /*******************************************************************************
   3:Generated_Source\PSoC5/cyfitter_cfg.c **** * File Name: cyfitter_cfg.c
   4:Generated_Source\PSoC5/cyfitter_cfg.c **** * 
   5:Generated_Source\PSoC5/cyfitter_cfg.c **** * PSoC Creator  4.2
   6:Generated_Source\PSoC5/cyfitter_cfg.c **** *
   7:Generated_Source\PSoC5/cyfitter_cfg.c **** * Description:
   8:Generated_Source\PSoC5/cyfitter_cfg.c **** * This file contains device initialization code.
   9:Generated_Source\PSoC5/cyfitter_cfg.c **** * Except for the user defined sections in CyClockStartupError(), this file should not be modified.
  10:Generated_Source\PSoC5/cyfitter_cfg.c **** * This file is automatically generated by PSoC Creator.
  11:Generated_Source\PSoC5/cyfitter_cfg.c **** *
  12:Generated_Source\PSoC5/cyfitter_cfg.c **** ********************************************************************************
  13:Generated_Source\PSoC5/cyfitter_cfg.c **** * Copyright (c) 2007-2018 Cypress Semiconductor.  All rights reserved.
  14:Generated_Source\PSoC5/cyfitter_cfg.c **** * You may use this file only in accordance with the license, terms, conditions, 
  15:Generated_Source\PSoC5/cyfitter_cfg.c **** * disclaimers, and limitations in the end user license agreement accompanying 
  16:Generated_Source\PSoC5/cyfitter_cfg.c **** * the software package with which this file was provided.
  17:Generated_Source\PSoC5/cyfitter_cfg.c **** ********************************************************************************/
  18:Generated_Source\PSoC5/cyfitter_cfg.c **** 
  19:Generated_Source\PSoC5/cyfitter_cfg.c **** #include <string.h>
  20:Generated_Source\PSoC5/cyfitter_cfg.c **** #include "cytypes.h"
  21:Generated_Source\PSoC5/cyfitter_cfg.c **** #include "cydevice_trm.h"
  22:Generated_Source\PSoC5/cyfitter_cfg.c **** #include "cyfitter.h"
  23:Generated_Source\PSoC5/cyfitter_cfg.c **** #include "CyLib.h"
  24:Generated_Source\PSoC5/cyfitter_cfg.c **** #include "cyfitter_cfg.h"
  25:Generated_Source\PSoC5/cyfitter_cfg.c **** #include "cyapicallbacks.h"
  26:Generated_Source\PSoC5/cyfitter_cfg.c **** 
  27:Generated_Source\PSoC5/cyfitter_cfg.c **** #define CY_NEED_CYCLOCKSTARTUPERROR 1
  28:Generated_Source\PSoC5/cyfitter_cfg.c **** 
  29:Generated_Source\PSoC5/cyfitter_cfg.c **** 
  30:Generated_Source\PSoC5/cyfitter_cfg.c **** #if defined(__GNUC__) || defined(__ARMCC_VERSION)
  31:Generated_Source\PSoC5/cyfitter_cfg.c ****     #define CYPACKED 
ARM GAS  C:\Users\Kotori\AppData\Local\Temp\cccJuZm6.s 			page 2


  32:Generated_Source\PSoC5/cyfitter_cfg.c ****     #define CYPACKED_ATTR __attribute__ ((packed))
  33:Generated_Source\PSoC5/cyfitter_cfg.c ****     #define CYALIGNED __attribute__ ((aligned))
  34:Generated_Source\PSoC5/cyfitter_cfg.c ****     #define CY_CFG_UNUSED __attribute__ ((unused))
  35:Generated_Source\PSoC5/cyfitter_cfg.c ****     #ifndef CY_CFG_SECTION
  36:Generated_Source\PSoC5/cyfitter_cfg.c ****         #define CY_CFG_SECTION __attribute__ ((section(".psocinit")))
  37:Generated_Source\PSoC5/cyfitter_cfg.c ****     #endif
  38:Generated_Source\PSoC5/cyfitter_cfg.c ****     
  39:Generated_Source\PSoC5/cyfitter_cfg.c ****     #if defined(__ARMCC_VERSION)
  40:Generated_Source\PSoC5/cyfitter_cfg.c ****         #define CY_CFG_MEMORY_BARRIER() __memory_changed()
  41:Generated_Source\PSoC5/cyfitter_cfg.c ****     #else
  42:Generated_Source\PSoC5/cyfitter_cfg.c ****         #define CY_CFG_MEMORY_BARRIER() __sync_synchronize()
  43:Generated_Source\PSoC5/cyfitter_cfg.c ****     #endif
  44:Generated_Source\PSoC5/cyfitter_cfg.c ****     
  45:Generated_Source\PSoC5/cyfitter_cfg.c **** #elif defined(__ICCARM__)
  46:Generated_Source\PSoC5/cyfitter_cfg.c ****     #include <intrinsics.h>
  47:Generated_Source\PSoC5/cyfitter_cfg.c **** 
  48:Generated_Source\PSoC5/cyfitter_cfg.c ****     #define CYPACKED __packed
  49:Generated_Source\PSoC5/cyfitter_cfg.c ****     #define CYPACKED_ATTR 
  50:Generated_Source\PSoC5/cyfitter_cfg.c ****     #define CYALIGNED _Pragma("data_alignment=4")
  51:Generated_Source\PSoC5/cyfitter_cfg.c ****     #define CY_CFG_UNUSED _Pragma("diag_suppress=Pe177")
  52:Generated_Source\PSoC5/cyfitter_cfg.c ****     #define CY_CFG_SECTION _Pragma("location=\".psocinit\"")
  53:Generated_Source\PSoC5/cyfitter_cfg.c ****     
  54:Generated_Source\PSoC5/cyfitter_cfg.c ****     #define CY_CFG_MEMORY_BARRIER() __DMB()
  55:Generated_Source\PSoC5/cyfitter_cfg.c ****     
  56:Generated_Source\PSoC5/cyfitter_cfg.c **** #else
  57:Generated_Source\PSoC5/cyfitter_cfg.c ****     #error Unsupported toolchain
  58:Generated_Source\PSoC5/cyfitter_cfg.c **** #endif
  59:Generated_Source\PSoC5/cyfitter_cfg.c **** 
  60:Generated_Source\PSoC5/cyfitter_cfg.c **** #ifndef CYCODE
  61:Generated_Source\PSoC5/cyfitter_cfg.c ****     #define CYCODE
  62:Generated_Source\PSoC5/cyfitter_cfg.c **** #endif
  63:Generated_Source\PSoC5/cyfitter_cfg.c **** #ifndef CYDATA
  64:Generated_Source\PSoC5/cyfitter_cfg.c ****     #define CYDATA
  65:Generated_Source\PSoC5/cyfitter_cfg.c **** #endif
  66:Generated_Source\PSoC5/cyfitter_cfg.c **** #ifndef CYFAR
  67:Generated_Source\PSoC5/cyfitter_cfg.c ****     #define CYFAR
  68:Generated_Source\PSoC5/cyfitter_cfg.c **** #endif
  69:Generated_Source\PSoC5/cyfitter_cfg.c **** #ifndef CYXDATA
  70:Generated_Source\PSoC5/cyfitter_cfg.c ****     #define CYXDATA
  71:Generated_Source\PSoC5/cyfitter_cfg.c **** #endif
  72:Generated_Source\PSoC5/cyfitter_cfg.c **** 
  73:Generated_Source\PSoC5/cyfitter_cfg.c **** 
  74:Generated_Source\PSoC5/cyfitter_cfg.c **** CY_CFG_UNUSED
  75:Generated_Source\PSoC5/cyfitter_cfg.c **** static void CYMEMZERO(void *s, size_t n);
  76:Generated_Source\PSoC5/cyfitter_cfg.c **** CY_CFG_UNUSED
  77:Generated_Source\PSoC5/cyfitter_cfg.c **** static void CYMEMZERO(void *s, size_t n)
  78:Generated_Source\PSoC5/cyfitter_cfg.c **** {
  79:Generated_Source\PSoC5/cyfitter_cfg.c **** 	(void)memset(s, 0, n);
  80:Generated_Source\PSoC5/cyfitter_cfg.c **** }
  81:Generated_Source\PSoC5/cyfitter_cfg.c **** CY_CFG_UNUSED
  82:Generated_Source\PSoC5/cyfitter_cfg.c **** static void CYCONFIGCPY(void *dest, const void *src, size_t n);
  83:Generated_Source\PSoC5/cyfitter_cfg.c **** CY_CFG_UNUSED
  84:Generated_Source\PSoC5/cyfitter_cfg.c **** static void CYCONFIGCPY(void *dest, const void *src, size_t n)
  85:Generated_Source\PSoC5/cyfitter_cfg.c **** {
  86:Generated_Source\PSoC5/cyfitter_cfg.c **** 	(void)memcpy(dest, src, n);
  87:Generated_Source\PSoC5/cyfitter_cfg.c **** }
  88:Generated_Source\PSoC5/cyfitter_cfg.c **** CY_CFG_UNUSED
ARM GAS  C:\Users\Kotori\AppData\Local\Temp\cccJuZm6.s 			page 3


  89:Generated_Source\PSoC5/cyfitter_cfg.c **** static void CYCONFIGCPYCODE(void *dest, const void *src, size_t n);
  90:Generated_Source\PSoC5/cyfitter_cfg.c **** CY_CFG_UNUSED
  91:Generated_Source\PSoC5/cyfitter_cfg.c **** static void CYCONFIGCPYCODE(void *dest, const void *src, size_t n)
  92:Generated_Source\PSoC5/cyfitter_cfg.c **** {
  93:Generated_Source\PSoC5/cyfitter_cfg.c **** 	(void)memcpy(dest, src, n);
  94:Generated_Source\PSoC5/cyfitter_cfg.c **** }
  95:Generated_Source\PSoC5/cyfitter_cfg.c **** 
  96:Generated_Source\PSoC5/cyfitter_cfg.c **** 
  97:Generated_Source\PSoC5/cyfitter_cfg.c **** 
  98:Generated_Source\PSoC5/cyfitter_cfg.c **** 
  99:Generated_Source\PSoC5/cyfitter_cfg.c **** /* Clock startup error codes                                                   */
 100:Generated_Source\PSoC5/cyfitter_cfg.c **** #define CYCLOCKSTART_NO_ERROR    0u
 101:Generated_Source\PSoC5/cyfitter_cfg.c **** #define CYCLOCKSTART_XTAL_ERROR  1u
 102:Generated_Source\PSoC5/cyfitter_cfg.c **** #define CYCLOCKSTART_32KHZ_ERROR 2u
 103:Generated_Source\PSoC5/cyfitter_cfg.c **** #define CYCLOCKSTART_PLL_ERROR   3u
 104:Generated_Source\PSoC5/cyfitter_cfg.c **** #define CYCLOCKSTART_FLL_ERROR   4u
 105:Generated_Source\PSoC5/cyfitter_cfg.c **** #define CYCLOCKSTART_WCO_ERROR   5u
 106:Generated_Source\PSoC5/cyfitter_cfg.c **** 
 107:Generated_Source\PSoC5/cyfitter_cfg.c **** 
 108:Generated_Source\PSoC5/cyfitter_cfg.c **** #ifdef CY_NEED_CYCLOCKSTARTUPERROR
 109:Generated_Source\PSoC5/cyfitter_cfg.c **** /*******************************************************************************
 110:Generated_Source\PSoC5/cyfitter_cfg.c **** * Function Name: CyClockStartupError
 111:Generated_Source\PSoC5/cyfitter_cfg.c **** ********************************************************************************
 112:Generated_Source\PSoC5/cyfitter_cfg.c **** * Summary:
 113:Generated_Source\PSoC5/cyfitter_cfg.c **** *  If an error is encountered during clock configuration (crystal startup error,
 114:Generated_Source\PSoC5/cyfitter_cfg.c **** *  PLL lock error, etc.), the system will end up here.  Unless reimplemented by
 115:Generated_Source\PSoC5/cyfitter_cfg.c **** *  the customer, this function will stop in an infinite loop.
 116:Generated_Source\PSoC5/cyfitter_cfg.c **** *
 117:Generated_Source\PSoC5/cyfitter_cfg.c **** * Parameters:
 118:Generated_Source\PSoC5/cyfitter_cfg.c **** *   void
 119:Generated_Source\PSoC5/cyfitter_cfg.c **** *
 120:Generated_Source\PSoC5/cyfitter_cfg.c **** * Return:
 121:Generated_Source\PSoC5/cyfitter_cfg.c **** *   void
 122:Generated_Source\PSoC5/cyfitter_cfg.c **** *
 123:Generated_Source\PSoC5/cyfitter_cfg.c **** *******************************************************************************/
 124:Generated_Source\PSoC5/cyfitter_cfg.c **** CY_CFG_UNUSED
 125:Generated_Source\PSoC5/cyfitter_cfg.c **** static void CyClockStartupError(uint8 errorCode);
 126:Generated_Source\PSoC5/cyfitter_cfg.c **** CY_CFG_UNUSED
 127:Generated_Source\PSoC5/cyfitter_cfg.c **** static void CyClockStartupError(uint8 errorCode)
 128:Generated_Source\PSoC5/cyfitter_cfg.c **** {
  27              		.loc 1 128 0
  28              		.cfi_startproc
  29              		@ Volatile: function does not return.
  30              		@ args = 0, pretend = 0, frame = 0
  31              		@ frame_needed = 0, uses_anonymous_args = 0
  32              		@ link register save eliminated.
  33              	.LVL0:
  34              	.L2:
  35 0000 FEE7     		b	.L2
  36              		.cfi_endproc
  37              	.LFE3:
  38              		.size	CyClockStartupError, .-CyClockStartupError
  39 0002 00BF     		.section	.text.cfg_write_bytes32,"ax",%progbits
  40              		.align	2
  41              		.thumb
  42              		.thumb_func
  43              		.type	cfg_write_bytes32, %function
ARM GAS  C:\Users\Kotori\AppData\Local\Temp\cccJuZm6.s 			page 4


  44              	cfg_write_bytes32:
  45              	.LFB4:
 129:Generated_Source\PSoC5/cyfitter_cfg.c ****     /* To remove the compiler warning if errorCode not used.                */
 130:Generated_Source\PSoC5/cyfitter_cfg.c ****     errorCode = errorCode;
 131:Generated_Source\PSoC5/cyfitter_cfg.c **** 
 132:Generated_Source\PSoC5/cyfitter_cfg.c ****     /* If we have a clock startup error (bad MHz crystal, PLL lock, etc.),  */
 133:Generated_Source\PSoC5/cyfitter_cfg.c ****     /* we will end up here to allow the customer to implement something to  */
 134:Generated_Source\PSoC5/cyfitter_cfg.c ****     /* deal with the clock condition.                                       */
 135:Generated_Source\PSoC5/cyfitter_cfg.c **** 
 136:Generated_Source\PSoC5/cyfitter_cfg.c **** #ifdef CY_CFG_CLOCK_STARTUP_ERROR_CALLBACK
 137:Generated_Source\PSoC5/cyfitter_cfg.c ****     CY_CFG_Clock_Startup_ErrorCallback();
 138:Generated_Source\PSoC5/cyfitter_cfg.c **** #else
 139:Generated_Source\PSoC5/cyfitter_cfg.c ****     /*  If not using CY_CFG_CLOCK_STARTUP_ERROR_CALLBACK, place your clock startup code here. */
 140:Generated_Source\PSoC5/cyfitter_cfg.c ****     /* `#START CyClockStartupError` */
 141:Generated_Source\PSoC5/cyfitter_cfg.c **** 
 142:Generated_Source\PSoC5/cyfitter_cfg.c **** 
 143:Generated_Source\PSoC5/cyfitter_cfg.c **** 
 144:Generated_Source\PSoC5/cyfitter_cfg.c ****     /* `#END` */
 145:Generated_Source\PSoC5/cyfitter_cfg.c **** 
 146:Generated_Source\PSoC5/cyfitter_cfg.c ****     while(1) {}
 147:Generated_Source\PSoC5/cyfitter_cfg.c **** #endif /* CY_CFG_CLOCK_STARTUP_ERROR_CALLBACK */
 148:Generated_Source\PSoC5/cyfitter_cfg.c **** }
 149:Generated_Source\PSoC5/cyfitter_cfg.c **** #endif
 150:Generated_Source\PSoC5/cyfitter_cfg.c **** 
 151:Generated_Source\PSoC5/cyfitter_cfg.c **** #define CY_CFG_BASE_ADDR_COUNT 28u
 152:Generated_Source\PSoC5/cyfitter_cfg.c **** CYPACKED typedef struct
 153:Generated_Source\PSoC5/cyfitter_cfg.c **** {
 154:Generated_Source\PSoC5/cyfitter_cfg.c **** 	uint8 offset;
 155:Generated_Source\PSoC5/cyfitter_cfg.c **** 	uint8 value;
 156:Generated_Source\PSoC5/cyfitter_cfg.c **** } CYPACKED_ATTR cy_cfg_addrvalue_t;
 157:Generated_Source\PSoC5/cyfitter_cfg.c **** 
 158:Generated_Source\PSoC5/cyfitter_cfg.c **** #define cy_cfg_addr_table ((const uint32 CYFAR *)0x48000000u)
 159:Generated_Source\PSoC5/cyfitter_cfg.c **** #define cy_cfg_data_table ((const cy_cfg_addrvalue_t CYFAR *)0x48000070u)
 160:Generated_Source\PSoC5/cyfitter_cfg.c **** 
 161:Generated_Source\PSoC5/cyfitter_cfg.c **** /* UDB_1_0_1_CONFIG Address: CYDEV_UCFG_B1_P2_U1_BASE Size (bytes): 128 */
 162:Generated_Source\PSoC5/cyfitter_cfg.c **** #define BS_UDB_1_0_1_CONFIG_VAL ((const uint8 CYFAR *)0x48000400u)
 163:Generated_Source\PSoC5/cyfitter_cfg.c **** 
 164:Generated_Source\PSoC5/cyfitter_cfg.c **** /* IOPINS0_0 Address: CYREG_PRT0_DM0 Size (bytes): 8 */
 165:Generated_Source\PSoC5/cyfitter_cfg.c **** #define BS_IOPINS0_0_VAL ((const uint8 CYFAR *)0x48000480u)
 166:Generated_Source\PSoC5/cyfitter_cfg.c **** 
 167:Generated_Source\PSoC5/cyfitter_cfg.c **** /* IOPINS0_1 Address: CYREG_PRT1_DM0 Size (bytes): 8 */
 168:Generated_Source\PSoC5/cyfitter_cfg.c **** #define BS_IOPINS0_1_VAL ((const uint8 CYFAR *)0x48000488u)
 169:Generated_Source\PSoC5/cyfitter_cfg.c **** 
 170:Generated_Source\PSoC5/cyfitter_cfg.c **** /* IOPINS0_2 Address: CYREG_PRT2_DM0 Size (bytes): 8 */
 171:Generated_Source\PSoC5/cyfitter_cfg.c **** #define BS_IOPINS0_2_VAL ((const uint8 CYFAR *)0x48000490u)
 172:Generated_Source\PSoC5/cyfitter_cfg.c **** 
 173:Generated_Source\PSoC5/cyfitter_cfg.c **** /* IOPINS0_3 Address: CYREG_PRT3_DR Size (bytes): 10 */
 174:Generated_Source\PSoC5/cyfitter_cfg.c **** #define BS_IOPINS0_3_VAL ((const uint8 CYFAR *)0x48000498u)
 175:Generated_Source\PSoC5/cyfitter_cfg.c **** 
 176:Generated_Source\PSoC5/cyfitter_cfg.c **** /* CYDEV_CLKDIST_ACFG0_CFG0 Address: CYREG_CLKDIST_ACFG0_CFG0 Size (bytes): 4 */
 177:Generated_Source\PSoC5/cyfitter_cfg.c **** #define BS_CYDEV_CLKDIST_ACFG0_CFG0_VAL ((const uint8 CYFAR *)0x480004A4u)
 178:Generated_Source\PSoC5/cyfitter_cfg.c **** 
 179:Generated_Source\PSoC5/cyfitter_cfg.c **** 
 180:Generated_Source\PSoC5/cyfitter_cfg.c **** /*******************************************************************************
 181:Generated_Source\PSoC5/cyfitter_cfg.c **** * Function Name: cfg_write_bytes32
 182:Generated_Source\PSoC5/cyfitter_cfg.c **** ********************************************************************************
 183:Generated_Source\PSoC5/cyfitter_cfg.c **** * Summary:
ARM GAS  C:\Users\Kotori\AppData\Local\Temp\cccJuZm6.s 			page 5


 184:Generated_Source\PSoC5/cyfitter_cfg.c **** *  This function is used for setting up the chip configuration areas that
 185:Generated_Source\PSoC5/cyfitter_cfg.c **** *  contain relatively sparse data.
 186:Generated_Source\PSoC5/cyfitter_cfg.c **** *
 187:Generated_Source\PSoC5/cyfitter_cfg.c **** * Parameters:
 188:Generated_Source\PSoC5/cyfitter_cfg.c **** *   void
 189:Generated_Source\PSoC5/cyfitter_cfg.c **** *
 190:Generated_Source\PSoC5/cyfitter_cfg.c **** * Return:
 191:Generated_Source\PSoC5/cyfitter_cfg.c **** *   void
 192:Generated_Source\PSoC5/cyfitter_cfg.c **** *
 193:Generated_Source\PSoC5/cyfitter_cfg.c **** *******************************************************************************/
 194:Generated_Source\PSoC5/cyfitter_cfg.c **** static void cfg_write_bytes32(const uint32 addr_table[], const cy_cfg_addrvalue_t data_table[]);
 195:Generated_Source\PSoC5/cyfitter_cfg.c **** static void cfg_write_bytes32(const uint32 addr_table[], const cy_cfg_addrvalue_t data_table[])
 196:Generated_Source\PSoC5/cyfitter_cfg.c **** {
  46              		.loc 1 196 0
  47              		.cfi_startproc
  48              		@ args = 0, pretend = 0, frame = 0
  49              		@ frame_needed = 0, uses_anonymous_args = 0
  50              		@ link register save eliminated.
  51              	.LVL1:
  52              		.loc 1 196 0
  53 0000 F0B4     		push	{r4, r5, r6, r7}
  54              		.cfi_def_cfa_offset 16
  55              		.cfi_offset 4, -16
  56              		.cfi_offset 5, -12
  57              		.cfi_offset 6, -8
  58              		.cfi_offset 7, -4
  59              	.LVL2:
 197:Generated_Source\PSoC5/cyfitter_cfg.c **** 	/* For 32-bit little-endian architectures */
 198:Generated_Source\PSoC5/cyfitter_cfg.c **** 	uint32 i, j = 0u;
  60              		.loc 1 198 0
  61 0002 0022     		movs	r2, #0
 199:Generated_Source\PSoC5/cyfitter_cfg.c **** 	for (i = 0u; i < CY_CFG_BASE_ADDR_COUNT; i++)
  62              		.loc 1 199 0
  63 0004 1746     		mov	r7, r2
  64 0006 11E0     		b	.L4
  65              	.LVL3:
  66              	.L7:
  67              	.LBB2:
 200:Generated_Source\PSoC5/cyfitter_cfg.c **** 	{
 201:Generated_Source\PSoC5/cyfitter_cfg.c **** 		uint32 baseAddr = addr_table[i];
  68              		.loc 1 201 0
  69 0008 50F82760 		ldr	r6, [r0, r7, lsl #2]
  70              	.LVL4:
 202:Generated_Source\PSoC5/cyfitter_cfg.c **** 		uint8 count = (uint8)baseAddr;
  71              		.loc 1 202 0
  72 000c F3B2     		uxtb	r3, r6
  73              	.LVL5:
 203:Generated_Source\PSoC5/cyfitter_cfg.c **** 		baseAddr &= 0xFFFFFF00u;
  74              		.loc 1 203 0
  75 000e 26F0FF06 		bic	r6, r6, #255
  76              	.LVL6:
 204:Generated_Source\PSoC5/cyfitter_cfg.c **** 		while (count != 0u)
  77              		.loc 1 204 0
  78 0012 08E0     		b	.L5
  79              	.L6:
 205:Generated_Source\PSoC5/cyfitter_cfg.c **** 		{
 206:Generated_Source\PSoC5/cyfitter_cfg.c **** 			CY_SET_REG8((void *)(baseAddr + data_table[j].offset), data_table[j].value);
ARM GAS  C:\Users\Kotori\AppData\Local\Temp\cccJuZm6.s 			page 6


  80              		.loc 1 206 0
  81 0014 01EB4205 		add	r5, r1, r2, lsl #1
  82 0018 11F81240 		ldrb	r4, [r1, r2, lsl #1]	@ zero_extendqisi2
  83 001c 6D78     		ldrb	r5, [r5, #1]	@ zero_extendqisi2
  84 001e A555     		strb	r5, [r4, r6]
 207:Generated_Source\PSoC5/cyfitter_cfg.c **** 			j++;
  85              		.loc 1 207 0
  86 0020 0132     		adds	r2, r2, #1
  87              	.LVL7:
 208:Generated_Source\PSoC5/cyfitter_cfg.c **** 			count--;
  88              		.loc 1 208 0
  89 0022 013B     		subs	r3, r3, #1
  90              	.LVL8:
  91 0024 DBB2     		uxtb	r3, r3
  92              	.LVL9:
  93              	.L5:
 204:Generated_Source\PSoC5/cyfitter_cfg.c **** 		{
  94              		.loc 1 204 0
  95 0026 002B     		cmp	r3, #0
  96 0028 F4D1     		bne	.L6
  97              	.LBE2:
 199:Generated_Source\PSoC5/cyfitter_cfg.c **** 	{
  98              		.loc 1 199 0 discriminator 2
  99 002a 0137     		adds	r7, r7, #1
 100              	.LVL10:
 101              	.L4:
 199:Generated_Source\PSoC5/cyfitter_cfg.c **** 	{
 102              		.loc 1 199 0 is_stmt 0 discriminator 1
 103 002c 1B2F     		cmp	r7, #27
 104 002e EBD9     		bls	.L7
 209:Generated_Source\PSoC5/cyfitter_cfg.c **** 		}
 210:Generated_Source\PSoC5/cyfitter_cfg.c **** 	}
 211:Generated_Source\PSoC5/cyfitter_cfg.c **** }
 105              		.loc 1 211 0 is_stmt 1
 106 0030 F0BC     		pop	{r4, r5, r6, r7}
 107              		.cfi_restore 7
 108              		.cfi_restore 6
 109              		.cfi_restore 5
 110              		.cfi_restore 4
 111              		.cfi_def_cfa_offset 0
 112              	.LVL11:
 113 0032 7047     		bx	lr
 114              		.cfi_endproc
 115              	.LFE4:
 116              		.size	cfg_write_bytes32, .-cfg_write_bytes32
 117              		.section	.text.AnalogSetDefault,"ax",%progbits
 118              		.align	2
 119              		.thumb
 120              		.thumb_func
 121              		.type	AnalogSetDefault, %function
 122              	AnalogSetDefault:
 123              	.LFB6:
 212:Generated_Source\PSoC5/cyfitter_cfg.c **** 
 213:Generated_Source\PSoC5/cyfitter_cfg.c **** /*******************************************************************************
 214:Generated_Source\PSoC5/cyfitter_cfg.c **** * Function Name: ClockSetup
 215:Generated_Source\PSoC5/cyfitter_cfg.c **** ********************************************************************************
 216:Generated_Source\PSoC5/cyfitter_cfg.c **** *
ARM GAS  C:\Users\Kotori\AppData\Local\Temp\cccJuZm6.s 			page 7


 217:Generated_Source\PSoC5/cyfitter_cfg.c **** * Summary:
 218:Generated_Source\PSoC5/cyfitter_cfg.c **** *  Performs the initialization of all of the clocks in the device based on the
 219:Generated_Source\PSoC5/cyfitter_cfg.c **** *  settings in the Clock tab of the DWR.  This includes enabling the requested
 220:Generated_Source\PSoC5/cyfitter_cfg.c **** *  clocks and setting the necessary dividers to produce the desired frequency. 
 221:Generated_Source\PSoC5/cyfitter_cfg.c **** *
 222:Generated_Source\PSoC5/cyfitter_cfg.c **** * Parameters:
 223:Generated_Source\PSoC5/cyfitter_cfg.c **** *  void
 224:Generated_Source\PSoC5/cyfitter_cfg.c **** *
 225:Generated_Source\PSoC5/cyfitter_cfg.c **** * Return:
 226:Generated_Source\PSoC5/cyfitter_cfg.c **** *  void
 227:Generated_Source\PSoC5/cyfitter_cfg.c **** *
 228:Generated_Source\PSoC5/cyfitter_cfg.c **** *******************************************************************************/
 229:Generated_Source\PSoC5/cyfitter_cfg.c **** static void ClockSetup(void);
 230:Generated_Source\PSoC5/cyfitter_cfg.c **** static void ClockSetup(void)
 231:Generated_Source\PSoC5/cyfitter_cfg.c **** {
 232:Generated_Source\PSoC5/cyfitter_cfg.c **** 	uint32 timeout;
 233:Generated_Source\PSoC5/cyfitter_cfg.c **** 	uint8 pllLock;
 234:Generated_Source\PSoC5/cyfitter_cfg.c **** 
 235:Generated_Source\PSoC5/cyfitter_cfg.c **** 
 236:Generated_Source\PSoC5/cyfitter_cfg.c **** 	/* Configure Digital Clocks based on settings from Clock DWR */
 237:Generated_Source\PSoC5/cyfitter_cfg.c **** 	CY_SET_XTND_REG16((void CYFAR *)(CYREG_CLKDIST_DCFG0_CFG0), 0x0000u);
 238:Generated_Source\PSoC5/cyfitter_cfg.c **** 	CY_SET_XTND_REG8((void CYFAR *)(CYREG_CLKDIST_DCFG0_CFG0 + 0x2u), 0x50u);
 239:Generated_Source\PSoC5/cyfitter_cfg.c **** 	CY_SET_XTND_REG16((void CYFAR *)(CYREG_CLKDIST_DCFG1_CFG0), 0x0017u);
 240:Generated_Source\PSoC5/cyfitter_cfg.c **** 	CY_SET_XTND_REG8((void CYFAR *)(CYREG_CLKDIST_DCFG1_CFG0 + 0x2u), 0x18u);
 241:Generated_Source\PSoC5/cyfitter_cfg.c **** 	CY_SET_XTND_REG16((void CYFAR *)(CYREG_CLKDIST_DCFG2_CFG0), 0x0019u);
 242:Generated_Source\PSoC5/cyfitter_cfg.c **** 	CY_SET_XTND_REG8((void CYFAR *)(CYREG_CLKDIST_DCFG2_CFG0 + 0x2u), 0x18u);
 243:Generated_Source\PSoC5/cyfitter_cfg.c **** 
 244:Generated_Source\PSoC5/cyfitter_cfg.c **** 	/* Configure Analog Clocks based on settings from Clock DWR */
 245:Generated_Source\PSoC5/cyfitter_cfg.c **** 	CYCONFIGCPY((void CYFAR *)(CYREG_CLKDIST_ACFG0_CFG0), (const void CYFAR *)(BS_CYDEV_CLKDIST_ACFG0_
 246:Generated_Source\PSoC5/cyfitter_cfg.c **** 
 247:Generated_Source\PSoC5/cyfitter_cfg.c **** 	/* Configure ILO based on settings from Clock DWR */
 248:Generated_Source\PSoC5/cyfitter_cfg.c **** 	CY_SET_XTND_REG8((void CYFAR *)(CYREG_SLOWCLK_ILO_CR0), 0x02u);
 249:Generated_Source\PSoC5/cyfitter_cfg.c **** 	CY_SET_XTND_REG8((void CYFAR *)(CYREG_CLKDIST_CR), 0x08u);
 250:Generated_Source\PSoC5/cyfitter_cfg.c **** 
 251:Generated_Source\PSoC5/cyfitter_cfg.c **** 	/* Configure IMO based on settings from Clock DWR */
 252:Generated_Source\PSoC5/cyfitter_cfg.c **** 	CY_SET_XTND_REG8((void CYFAR *)(CYREG_FASTCLK_IMO_CR), 0x03u);
 253:Generated_Source\PSoC5/cyfitter_cfg.c **** 	CY_SET_XTND_REG8((void CYFAR *)(CYREG_IMO_TR1), (CY_GET_XTND_REG8((void CYFAR *)CYREG_FLSHID_CUST_
 254:Generated_Source\PSoC5/cyfitter_cfg.c **** 
 255:Generated_Source\PSoC5/cyfitter_cfg.c **** 	/* Configure PLL based on settings from Clock DWR */
 256:Generated_Source\PSoC5/cyfitter_cfg.c **** 	CY_SET_XTND_REG16((void CYFAR *)(CYREG_FASTCLK_PLL_P), 0x0008u);
 257:Generated_Source\PSoC5/cyfitter_cfg.c **** 	CY_SET_XTND_REG16((void CYFAR *)(CYREG_FASTCLK_PLL_CFG0), 0x1251u);
 258:Generated_Source\PSoC5/cyfitter_cfg.c **** 	/* Wait up to 250us for the PLL to lock */
 259:Generated_Source\PSoC5/cyfitter_cfg.c **** 	pllLock = 0u;
 260:Generated_Source\PSoC5/cyfitter_cfg.c **** 	for (timeout = 250u / 10u; (timeout > 0u) && (pllLock != 0x03u); timeout--)
 261:Generated_Source\PSoC5/cyfitter_cfg.c **** 	{ 
 262:Generated_Source\PSoC5/cyfitter_cfg.c **** 		pllLock = 0x03u & ((uint8)((uint8)pllLock << 1) | ((CY_GET_XTND_REG8((void CYFAR *)CYREG_FASTCLK_
 263:Generated_Source\PSoC5/cyfitter_cfg.c **** 		CyDelayCycles(10u * 48u); /* Delay 10us based on 48MHz clock */
 264:Generated_Source\PSoC5/cyfitter_cfg.c **** 	}
 265:Generated_Source\PSoC5/cyfitter_cfg.c **** 	/* If we ran out of time the PLL didn't lock so go to the error function */
 266:Generated_Source\PSoC5/cyfitter_cfg.c **** 	if (timeout == 0u)
 267:Generated_Source\PSoC5/cyfitter_cfg.c **** 	{
 268:Generated_Source\PSoC5/cyfitter_cfg.c **** 		CyClockStartupError(CYCLOCKSTART_PLL_ERROR);
 269:Generated_Source\PSoC5/cyfitter_cfg.c **** 	}
 270:Generated_Source\PSoC5/cyfitter_cfg.c **** 
 271:Generated_Source\PSoC5/cyfitter_cfg.c **** 	/* Configure Bus/Master Clock based on settings from Clock DWR */
 272:Generated_Source\PSoC5/cyfitter_cfg.c **** 	CY_SET_XTND_REG16((void CYFAR *)(CYREG_CLKDIST_MSTR0), 0x0100u);
 273:Generated_Source\PSoC5/cyfitter_cfg.c **** 	CY_SET_XTND_REG8((void CYFAR *)(CYREG_CLKDIST_MSTR0), 0x07u);
ARM GAS  C:\Users\Kotori\AppData\Local\Temp\cccJuZm6.s 			page 8


 274:Generated_Source\PSoC5/cyfitter_cfg.c **** 	CY_SET_XTND_REG8((void CYFAR *)(CYREG_CLKDIST_BCFG0), 0x00u);
 275:Generated_Source\PSoC5/cyfitter_cfg.c **** 	CY_SET_XTND_REG8((void CYFAR *)(CYREG_CLKDIST_BCFG2), 0x48u);
 276:Generated_Source\PSoC5/cyfitter_cfg.c **** 	CY_SET_XTND_REG8((void CYFAR *)(CYREG_CLKDIST_MSTR0), 0x00u);
 277:Generated_Source\PSoC5/cyfitter_cfg.c **** 	CY_SET_XTND_REG8((void CYFAR *)(CYREG_CLKDIST_LD), 0x02u);
 278:Generated_Source\PSoC5/cyfitter_cfg.c **** 	CY_SET_XTND_REG8((void CYFAR *)(CYREG_CLKDIST_DLY1), 0x04u);
 279:Generated_Source\PSoC5/cyfitter_cfg.c **** 
 280:Generated_Source\PSoC5/cyfitter_cfg.c **** 	CY_SET_XTND_REG8((void CYFAR *)(CYREG_PM_ACT_CFG2), ((CY_GET_XTND_REG8((void CYFAR *)CYREG_PM_ACT_
 281:Generated_Source\PSoC5/cyfitter_cfg.c **** 	CY_SET_XTND_REG8((void CYFAR *)(CYREG_PM_ACT_CFG1), ((CY_GET_XTND_REG8((void CYFAR *)CYREG_PM_ACT_
 282:Generated_Source\PSoC5/cyfitter_cfg.c **** 	CY_SET_XTND_REG8((void CYFAR *)(CYREG_PM_ACT_CFG0), ((CY_GET_XTND_REG8((void CYFAR *)CYREG_PM_ACT_
 283:Generated_Source\PSoC5/cyfitter_cfg.c **** }
 284:Generated_Source\PSoC5/cyfitter_cfg.c **** 
 285:Generated_Source\PSoC5/cyfitter_cfg.c **** 
 286:Generated_Source\PSoC5/cyfitter_cfg.c **** /* Analog API Functions */
 287:Generated_Source\PSoC5/cyfitter_cfg.c **** 
 288:Generated_Source\PSoC5/cyfitter_cfg.c **** 
 289:Generated_Source\PSoC5/cyfitter_cfg.c **** /*******************************************************************************
 290:Generated_Source\PSoC5/cyfitter_cfg.c **** * Function Name: AnalogSetDefault
 291:Generated_Source\PSoC5/cyfitter_cfg.c **** ********************************************************************************
 292:Generated_Source\PSoC5/cyfitter_cfg.c **** *
 293:Generated_Source\PSoC5/cyfitter_cfg.c **** * Summary:
 294:Generated_Source\PSoC5/cyfitter_cfg.c **** *  Sets up the analog portions of the chip to default values based on chip
 295:Generated_Source\PSoC5/cyfitter_cfg.c **** *  configuration options from the project.
 296:Generated_Source\PSoC5/cyfitter_cfg.c **** *
 297:Generated_Source\PSoC5/cyfitter_cfg.c **** * Parameters:
 298:Generated_Source\PSoC5/cyfitter_cfg.c **** *  void
 299:Generated_Source\PSoC5/cyfitter_cfg.c **** *
 300:Generated_Source\PSoC5/cyfitter_cfg.c **** * Return:
 301:Generated_Source\PSoC5/cyfitter_cfg.c **** *  void
 302:Generated_Source\PSoC5/cyfitter_cfg.c **** *
 303:Generated_Source\PSoC5/cyfitter_cfg.c **** *******************************************************************************/
 304:Generated_Source\PSoC5/cyfitter_cfg.c **** static void AnalogSetDefault(void);
 305:Generated_Source\PSoC5/cyfitter_cfg.c **** static void AnalogSetDefault(void)
 306:Generated_Source\PSoC5/cyfitter_cfg.c **** {
 124              		.loc 1 306 0
 125              		.cfi_startproc
 126              		@ args = 0, pretend = 0, frame = 0
 127              		@ frame_needed = 0, uses_anonymous_args = 0
 128              		@ link register save eliminated.
 307:Generated_Source\PSoC5/cyfitter_cfg.c **** 	uint8 bg_xover_inl_trim = CY_GET_XTND_REG8((void CYFAR *)(CYREG_FLSHID_MFG_CFG_BG_XOVER_INL_TRIM +
 129              		.loc 1 307 0
 130 0000 0A4B     		ldr	r3, .L10
 131 0002 1B78     		ldrb	r3, [r3]	@ zero_extendqisi2
 132 0004 DBB2     		uxtb	r3, r3
 133              	.LVL12:
 308:Generated_Source\PSoC5/cyfitter_cfg.c **** 	CY_SET_XTND_REG8((void CYFAR *)(CYREG_BG_DFT0), (bg_xover_inl_trim & 0x07u));
 134              		.loc 1 308 0
 135 0006 03F00701 		and	r1, r3, #7
 136 000a 094A     		ldr	r2, .L10+4
 137 000c 1170     		strb	r1, [r2]
 309:Generated_Source\PSoC5/cyfitter_cfg.c **** 	CY_SET_XTND_REG8((void CYFAR *)(CYREG_BG_DFT1), ((bg_xover_inl_trim >> 4) & 0x0Fu));
 138              		.loc 1 309 0
 139 000e 1B09     		lsrs	r3, r3, #4
 140              	.LVL13:
 141 0010 0132     		adds	r2, r2, #1
 142 0012 1370     		strb	r3, [r2]
 310:Generated_Source\PSoC5/cyfitter_cfg.c **** 	CY_SET_XTND_REG8((void CYFAR *)CYREG_DAC3_SW0, 0x30u);
 143              		.loc 1 310 0
ARM GAS  C:\Users\Kotori\AppData\Local\Temp\cccJuZm6.s 			page 9


 144 0014 3022     		movs	r2, #48
 145 0016 074B     		ldr	r3, .L10+8
 146 0018 1A70     		strb	r2, [r3]
 311:Generated_Source\PSoC5/cyfitter_cfg.c **** 	CY_SET_XTND_REG8((void CYFAR *)CYREG_BUS_SW0, 0x60u);
 147              		.loc 1 311 0
 148 001a 6022     		movs	r2, #96
 149 001c C033     		adds	r3, r3, #192
 150 001e 1A70     		strb	r2, [r3]
 312:Generated_Source\PSoC5/cyfitter_cfg.c **** 	CY_SET_XTND_REG8((void CYFAR *)CYREG_PUMP_CR0, 0x44u);
 151              		.loc 1 312 0
 152 0020 4422     		movs	r2, #68
 153 0022 A3F2E223 		subw	r3, r3, #738
 154 0026 1A70     		strb	r2, [r3]
 155 0028 7047     		bx	lr
 156              	.L11:
 157 002a 00BF     		.align	2
 158              	.L10:
 159 002c CF010049 		.word	1224737231
 160 0030 6E580040 		.word	1073764462
 161 0034 985A0040 		.word	1073765016
 162              		.cfi_endproc
 163              	.LFE6:
 164              		.size	AnalogSetDefault, .-AnalogSetDefault
 165              		.section	.text.CYMEMZERO,"ax",%progbits
 166              		.align	2
 167              		.thumb
 168              		.thumb_func
 169              		.type	CYMEMZERO, %function
 170              	CYMEMZERO:
 171              	.LFB0:
  78:Generated_Source\PSoC5/cyfitter_cfg.c **** 	(void)memset(s, 0, n);
 172              		.loc 1 78 0
 173              		.cfi_startproc
 174              		@ args = 0, pretend = 0, frame = 0
 175              		@ frame_needed = 0, uses_anonymous_args = 0
 176              	.LVL14:
 177 0000 08B5     		push	{r3, lr}
 178              		.cfi_def_cfa_offset 8
 179              		.cfi_offset 3, -8
 180              		.cfi_offset 14, -4
  79:Generated_Source\PSoC5/cyfitter_cfg.c **** }
 181              		.loc 1 79 0
 182 0002 0A46     		mov	r2, r1
 183 0004 0021     		movs	r1, #0
 184              	.LVL15:
 185 0006 FFF7FEFF 		bl	memset
 186              	.LVL16:
 187 000a 08BD     		pop	{r3, pc}
 188              		.cfi_endproc
 189              	.LFE0:
 190              		.size	CYMEMZERO, .-CYMEMZERO
 191              		.section	.text.CYCONFIGCPY,"ax",%progbits
 192              		.align	2
 193              		.thumb
 194              		.thumb_func
 195              		.type	CYCONFIGCPY, %function
 196              	CYCONFIGCPY:
ARM GAS  C:\Users\Kotori\AppData\Local\Temp\cccJuZm6.s 			page 10


 197              	.LFB1:
  85:Generated_Source\PSoC5/cyfitter_cfg.c **** 	(void)memcpy(dest, src, n);
 198              		.loc 1 85 0
 199              		.cfi_startproc
 200              		@ args = 0, pretend = 0, frame = 0
 201              		@ frame_needed = 0, uses_anonymous_args = 0
 202              	.LVL17:
 203 0000 08B5     		push	{r3, lr}
 204              		.cfi_def_cfa_offset 8
 205              		.cfi_offset 3, -8
 206              		.cfi_offset 14, -4
  86:Generated_Source\PSoC5/cyfitter_cfg.c **** }
 207              		.loc 1 86 0
 208 0002 FFF7FEFF 		bl	memcpy
 209              	.LVL18:
 210 0006 08BD     		pop	{r3, pc}
 211              		.cfi_endproc
 212              	.LFE1:
 213              		.size	CYCONFIGCPY, .-CYCONFIGCPY
 214              		.section	.text.ClockSetup,"ax",%progbits
 215              		.align	2
 216              		.thumb
 217              		.thumb_func
 218              		.type	ClockSetup, %function
 219              	ClockSetup:
 220              	.LFB5:
 231:Generated_Source\PSoC5/cyfitter_cfg.c **** 	uint32 timeout;
 221              		.loc 1 231 0
 222              		.cfi_startproc
 223              		@ args = 0, pretend = 0, frame = 0
 224              		@ frame_needed = 0, uses_anonymous_args = 0
 225 0000 38B5     		push	{r3, r4, r5, lr}
 226              		.cfi_def_cfa_offset 16
 227              		.cfi_offset 3, -16
 228              		.cfi_offset 4, -12
 229              		.cfi_offset 5, -8
 230              		.cfi_offset 14, -4
 237:Generated_Source\PSoC5/cyfitter_cfg.c **** 	CY_SET_XTND_REG8((void CYFAR *)(CYREG_CLKDIST_DCFG0_CFG0 + 0x2u), 0x50u);
 231              		.loc 1 237 0
 232 0002 0024     		movs	r4, #0
 233 0004 314B     		ldr	r3, .L22
 234 0006 1C80     		strh	r4, [r3]	@ movhi
 238:Generated_Source\PSoC5/cyfitter_cfg.c **** 	CY_SET_XTND_REG16((void CYFAR *)(CYREG_CLKDIST_DCFG1_CFG0), 0x0017u);
 235              		.loc 1 238 0
 236 0008 5022     		movs	r2, #80
 237 000a 0233     		adds	r3, r3, #2
 238 000c 1A70     		strb	r2, [r3]
 239:Generated_Source\PSoC5/cyfitter_cfg.c **** 	CY_SET_XTND_REG8((void CYFAR *)(CYREG_CLKDIST_DCFG1_CFG0 + 0x2u), 0x18u);
 239              		.loc 1 239 0
 240 000e 1722     		movs	r2, #23
 241 0010 0233     		adds	r3, r3, #2
 242 0012 1A80     		strh	r2, [r3]	@ movhi
 240:Generated_Source\PSoC5/cyfitter_cfg.c **** 	CY_SET_XTND_REG16((void CYFAR *)(CYREG_CLKDIST_DCFG2_CFG0), 0x0019u);
 243              		.loc 1 240 0
 244 0014 1823     		movs	r3, #24
 245 0016 2E4A     		ldr	r2, .L22+4
 246 0018 1370     		strb	r3, [r2]
ARM GAS  C:\Users\Kotori\AppData\Local\Temp\cccJuZm6.s 			page 11


 241:Generated_Source\PSoC5/cyfitter_cfg.c **** 	CY_SET_XTND_REG8((void CYFAR *)(CYREG_CLKDIST_DCFG2_CFG0 + 0x2u), 0x18u);
 247              		.loc 1 241 0
 248 001a 1925     		movs	r5, #25
 249 001c 0232     		adds	r2, r2, #2
 250 001e 1580     		strh	r5, [r2]	@ movhi
 242:Generated_Source\PSoC5/cyfitter_cfg.c **** 
 251              		.loc 1 242 0
 252 0020 0232     		adds	r2, r2, #2
 253 0022 1370     		strb	r3, [r2]
 245:Generated_Source\PSoC5/cyfitter_cfg.c **** 
 254              		.loc 1 245 0
 255 0024 0422     		movs	r2, #4
 256 0026 2B49     		ldr	r1, .L22+8
 257 0028 2B48     		ldr	r0, .L22+12
 258 002a FFF7FEFF 		bl	CYCONFIGCPY
 259              	.LVL19:
 248:Generated_Source\PSoC5/cyfitter_cfg.c **** 	CY_SET_XTND_REG8((void CYFAR *)(CYREG_CLKDIST_CR), 0x08u);
 260              		.loc 1 248 0
 261 002e 0222     		movs	r2, #2
 262 0030 2A4B     		ldr	r3, .L22+16
 263 0032 1A70     		strb	r2, [r3]
 249:Generated_Source\PSoC5/cyfitter_cfg.c **** 
 264              		.loc 1 249 0
 265 0034 0822     		movs	r2, #8
 266 0036 4FF04023 		mov	r3, #1073758208
 267 003a 1A70     		strb	r2, [r3]
 252:Generated_Source\PSoC5/cyfitter_cfg.c **** 	CY_SET_XTND_REG8((void CYFAR *)(CYREG_IMO_TR1), (CY_GET_XTND_REG8((void CYFAR *)CYREG_FLSHID_CUST_
 268              		.loc 1 252 0
 269 003c 0321     		movs	r1, #3
 270 003e 03F50073 		add	r3, r3, #512
 271 0042 1970     		strb	r1, [r3]
 253:Generated_Source\PSoC5/cyfitter_cfg.c **** 
 272              		.loc 1 253 0
 273 0044 264B     		ldr	r3, .L22+20
 274 0046 1B78     		ldrb	r3, [r3]	@ zero_extendqisi2
 275 0048 DBB2     		uxtb	r3, r3
 276 004a 2649     		ldr	r1, .L22+24
 277 004c 0B70     		strb	r3, [r1]
 256:Generated_Source\PSoC5/cyfitter_cfg.c **** 	CY_SET_XTND_REG16((void CYFAR *)(CYREG_FASTCLK_PLL_CFG0), 0x1251u);
 278              		.loc 1 256 0
 279 004e 264B     		ldr	r3, .L22+28
 280 0050 1A80     		strh	r2, [r3]	@ movhi
 257:Generated_Source\PSoC5/cyfitter_cfg.c **** 	/* Wait up to 250us for the PLL to lock */
 281              		.loc 1 257 0
 282 0052 41F25122 		movw	r2, #4689
 283 0056 023B     		subs	r3, r3, #2
 284 0058 1A80     		strh	r2, [r3]	@ movhi
 285              	.LVL20:
 260:Generated_Source\PSoC5/cyfitter_cfg.c **** 	{ 
 286              		.loc 1 260 0
 287 005a 0CE0     		b	.L17
 288              	.LVL21:
 289              	.L19:
 262:Generated_Source\PSoC5/cyfitter_cfg.c **** 		CyDelayCycles(10u * 48u); /* Delay 10us based on 48MHz clock */
 290              		.loc 1 262 0 discriminator 4
 291 005c 234B     		ldr	r3, .L22+32
 292 005e 1B78     		ldrb	r3, [r3]	@ zero_extendqisi2
ARM GAS  C:\Users\Kotori\AppData\Local\Temp\cccJuZm6.s 			page 12


 293 0060 03F00103 		and	r3, r3, #1
 294 0064 43EA4404 		orr	r4, r3, r4, lsl #1
 295              	.LVL22:
 296 0068 04F00304 		and	r4, r4, #3
 297              	.LVL23:
 263:Generated_Source\PSoC5/cyfitter_cfg.c **** 	}
 298              		.loc 1 263 0 discriminator 4
 299 006c 4FF4F070 		mov	r0, #480
 300 0070 FFF7FEFF 		bl	CyDelayCycles
 301              	.LVL24:
 260:Generated_Source\PSoC5/cyfitter_cfg.c **** 	{ 
 302              		.loc 1 260 0 discriminator 4
 303 0074 013D     		subs	r5, r5, #1
 304              	.LVL25:
 305              	.L17:
 260:Generated_Source\PSoC5/cyfitter_cfg.c **** 	{ 
 306              		.loc 1 260 0 is_stmt 0 discriminator 1
 307 0076 0DB1     		cbz	r5, .L18
 260:Generated_Source\PSoC5/cyfitter_cfg.c **** 	{ 
 308              		.loc 1 260 0 discriminator 3
 309 0078 032C     		cmp	r4, #3
 310 007a EFD1     		bne	.L19
 311              	.L18:
 266:Generated_Source\PSoC5/cyfitter_cfg.c **** 	{
 312              		.loc 1 266 0 is_stmt 1
 313 007c 15B9     		cbnz	r5, .L20
 268:Generated_Source\PSoC5/cyfitter_cfg.c **** 	}
 314              		.loc 1 268 0
 315 007e 0320     		movs	r0, #3
 316 0080 FFF7FEFF 		bl	CyClockStartupError
 317              	.LVL26:
 318              	.L20:
 272:Generated_Source\PSoC5/cyfitter_cfg.c **** 	CY_SET_XTND_REG8((void CYFAR *)(CYREG_CLKDIST_MSTR0), 0x07u);
 319              		.loc 1 272 0
 320 0084 1A4B     		ldr	r3, .L22+36
 321 0086 4FF48072 		mov	r2, #256
 322 008a 1A80     		strh	r2, [r3]	@ movhi
 273:Generated_Source\PSoC5/cyfitter_cfg.c **** 	CY_SET_XTND_REG8((void CYFAR *)(CYREG_CLKDIST_BCFG0), 0x00u);
 323              		.loc 1 273 0
 324 008c 0722     		movs	r2, #7
 325 008e 1A70     		strb	r2, [r3]
 274:Generated_Source\PSoC5/cyfitter_cfg.c **** 	CY_SET_XTND_REG8((void CYFAR *)(CYREG_CLKDIST_BCFG2), 0x48u);
 326              		.loc 1 274 0
 327 0090 0022     		movs	r2, #0
 328 0092 1849     		ldr	r1, .L22+40
 329 0094 0A70     		strb	r2, [r1]
 275:Generated_Source\PSoC5/cyfitter_cfg.c **** 	CY_SET_XTND_REG8((void CYFAR *)(CYREG_CLKDIST_MSTR0), 0x00u);
 330              		.loc 1 275 0
 331 0096 4820     		movs	r0, #72
 332 0098 0231     		adds	r1, r1, #2
 333 009a 0870     		strb	r0, [r1]
 276:Generated_Source\PSoC5/cyfitter_cfg.c **** 	CY_SET_XTND_REG8((void CYFAR *)(CYREG_CLKDIST_LD), 0x02u);
 334              		.loc 1 276 0
 335 009c 1A70     		strb	r2, [r3]
 277:Generated_Source\PSoC5/cyfitter_cfg.c **** 	CY_SET_XTND_REG8((void CYFAR *)(CYREG_CLKDIST_DLY1), 0x04u);
 336              		.loc 1 277 0
 337 009e 0222     		movs	r2, #2
ARM GAS  C:\Users\Kotori\AppData\Local\Temp\cccJuZm6.s 			page 13


 338 00a0 033B     		subs	r3, r3, #3
 339 00a2 1A70     		strb	r2, [r3]
 278:Generated_Source\PSoC5/cyfitter_cfg.c **** 
 340              		.loc 1 278 0
 341 00a4 0422     		movs	r2, #4
 342 00a6 0A33     		adds	r3, r3, #10
 343 00a8 1A70     		strb	r2, [r3]
 280:Generated_Source\PSoC5/cyfitter_cfg.c **** 	CY_SET_XTND_REG8((void CYFAR *)(CYREG_PM_ACT_CFG1), ((CY_GET_XTND_REG8((void CYFAR *)CYREG_PM_ACT_
 344              		.loc 1 280 0
 345 00aa 134A     		ldr	r2, .L22+44
 346 00ac 1378     		ldrb	r3, [r2]	@ zero_extendqisi2
 347 00ae 43F00703 		orr	r3, r3, #7
 348 00b2 1370     		strb	r3, [r2]
 281:Generated_Source\PSoC5/cyfitter_cfg.c **** 	CY_SET_XTND_REG8((void CYFAR *)(CYREG_PM_ACT_CFG0), ((CY_GET_XTND_REG8((void CYFAR *)CYREG_PM_ACT_
 349              		.loc 1 281 0
 350 00b4 013A     		subs	r2, r2, #1
 351 00b6 1378     		ldrb	r3, [r2]	@ zero_extendqisi2
 352 00b8 43F00103 		orr	r3, r3, #1
 353 00bc 1370     		strb	r3, [r2]
 282:Generated_Source\PSoC5/cyfitter_cfg.c **** }
 354              		.loc 1 282 0
 355 00be 013A     		subs	r2, r2, #1
 356 00c0 1378     		ldrb	r3, [r2]	@ zero_extendqisi2
 357 00c2 43F08003 		orr	r3, r3, #128
 358 00c6 1370     		strb	r3, [r2]
 359 00c8 38BD     		pop	{r3, r4, r5, pc}
 360              	.LVL27:
 361              	.L23:
 362 00ca 00BF     		.align	2
 363              	.L22:
 364 00cc 80400040 		.word	1073758336
 365 00d0 86400040 		.word	1073758342
 366 00d4 A4040048 		.word	1207960740
 367 00d8 00410040 		.word	1073758464
 368 00dc 00430040 		.word	1073758976
 369 00e0 08010049 		.word	1224737032
 370 00e4 A1460040 		.word	1073759905
 371 00e8 22420040 		.word	1073758754
 372 00ec 25420040 		.word	1073758757
 373 00f0 04400040 		.word	1073758212
 374 00f4 06400040 		.word	1073758214
 375 00f8 A2430040 		.word	1073759138
 376              		.cfi_endproc
 377              	.LFE5:
 378              		.size	ClockSetup, .-ClockSetup
 379              		.section	.text.SetAnalogRoutingPumps,"ax",%progbits
 380              		.align	2
 381              		.global	SetAnalogRoutingPumps
 382              		.thumb
 383              		.thumb_func
 384              		.type	SetAnalogRoutingPumps, %function
 385              	SetAnalogRoutingPumps:
 386              	.LFB7:
 313:Generated_Source\PSoC5/cyfitter_cfg.c **** }
 314:Generated_Source\PSoC5/cyfitter_cfg.c **** 
 315:Generated_Source\PSoC5/cyfitter_cfg.c **** 
 316:Generated_Source\PSoC5/cyfitter_cfg.c **** /*******************************************************************************
ARM GAS  C:\Users\Kotori\AppData\Local\Temp\cccJuZm6.s 			page 14


 317:Generated_Source\PSoC5/cyfitter_cfg.c **** * Function Name: SetAnalogRoutingPumps
 318:Generated_Source\PSoC5/cyfitter_cfg.c **** ********************************************************************************
 319:Generated_Source\PSoC5/cyfitter_cfg.c **** *
 320:Generated_Source\PSoC5/cyfitter_cfg.c **** * Summary:
 321:Generated_Source\PSoC5/cyfitter_cfg.c **** * Enables or disables the analog pumps feeding analog routing switches.
 322:Generated_Source\PSoC5/cyfitter_cfg.c **** * Intended to be called at startup, based on the Vdda system configuration;
 323:Generated_Source\PSoC5/cyfitter_cfg.c **** * may be called during operation when the user informs us that the Vdda voltage
 324:Generated_Source\PSoC5/cyfitter_cfg.c **** * crossed the pump threshold.
 325:Generated_Source\PSoC5/cyfitter_cfg.c **** *
 326:Generated_Source\PSoC5/cyfitter_cfg.c **** * Parameters:
 327:Generated_Source\PSoC5/cyfitter_cfg.c **** *  enabled - 1 to enable the pumps, 0 to disable the pumps
 328:Generated_Source\PSoC5/cyfitter_cfg.c **** *
 329:Generated_Source\PSoC5/cyfitter_cfg.c **** * Return:
 330:Generated_Source\PSoC5/cyfitter_cfg.c **** *  void
 331:Generated_Source\PSoC5/cyfitter_cfg.c **** *
 332:Generated_Source\PSoC5/cyfitter_cfg.c **** *******************************************************************************/
 333:Generated_Source\PSoC5/cyfitter_cfg.c **** void SetAnalogRoutingPumps(uint8 enabled)
 334:Generated_Source\PSoC5/cyfitter_cfg.c **** {
 387              		.loc 1 334 0
 388              		.cfi_startproc
 389              		@ args = 0, pretend = 0, frame = 0
 390              		@ frame_needed = 0, uses_anonymous_args = 0
 391              		@ link register save eliminated.
 392              	.LVL28:
 335:Generated_Source\PSoC5/cyfitter_cfg.c **** 	uint8 regValue = CY_GET_XTND_REG8((void CYFAR *)CYREG_PUMP_CR0);
 393              		.loc 1 335 0
 394 0000 054B     		ldr	r3, .L27
 395 0002 1B78     		ldrb	r3, [r3]	@ zero_extendqisi2
 396 0004 DBB2     		uxtb	r3, r3
 397              	.LVL29:
 336:Generated_Source\PSoC5/cyfitter_cfg.c **** 	if (enabled != 0u)
 398              		.loc 1 336 0
 399 0006 10B1     		cbz	r0, .L25
 337:Generated_Source\PSoC5/cyfitter_cfg.c **** 	{
 338:Generated_Source\PSoC5/cyfitter_cfg.c **** 		regValue |= 0x22u;
 400              		.loc 1 338 0
 401 0008 43F02203 		orr	r3, r3, #34
 402              	.LVL30:
 403 000c 01E0     		b	.L26
 404              	.L25:
 339:Generated_Source\PSoC5/cyfitter_cfg.c **** 	}
 340:Generated_Source\PSoC5/cyfitter_cfg.c **** 	else
 341:Generated_Source\PSoC5/cyfitter_cfg.c **** 	{
 342:Generated_Source\PSoC5/cyfitter_cfg.c **** 		regValue &= (uint8)~0x22u;
 405              		.loc 1 342 0
 406 000e 03F0DD03 		and	r3, r3, #221
 407              	.LVL31:
 408              	.L26:
 343:Generated_Source\PSoC5/cyfitter_cfg.c **** 	}
 344:Generated_Source\PSoC5/cyfitter_cfg.c **** 	CY_SET_XTND_REG8((void CYFAR *)CYREG_PUMP_CR0, regValue);
 409              		.loc 1 344 0
 410 0012 014A     		ldr	r2, .L27
 411 0014 1370     		strb	r3, [r2]
 412 0016 7047     		bx	lr
 413              	.L28:
 414              		.align	2
 415              	.L27:
ARM GAS  C:\Users\Kotori\AppData\Local\Temp\cccJuZm6.s 			page 15


 416 0018 76580040 		.word	1073764470
 417              		.cfi_endproc
 418              	.LFE7:
 419              		.size	SetAnalogRoutingPumps, .-SetAnalogRoutingPumps
 420              		.section	.text.A_SENS_Set,"ax",%progbits
 421              		.align	2
 422              		.global	A_SENS_Set
 423              		.thumb
 424              		.thumb_func
 425              		.type	A_SENS_Set, %function
 426              	A_SENS_Set:
 427              	.LFB8:
 345:Generated_Source\PSoC5/cyfitter_cfg.c **** }
 346:Generated_Source\PSoC5/cyfitter_cfg.c **** 
 347:Generated_Source\PSoC5/cyfitter_cfg.c **** 
 348:Generated_Source\PSoC5/cyfitter_cfg.c **** #define CY_AMUX_UNUSED CYREG_BOOST_SR
 349:Generated_Source\PSoC5/cyfitter_cfg.c **** static uint8 CYXDATA * const CYCODE A_SENS__outerAddr[3] = {
 350:Generated_Source\PSoC5/cyfitter_cfg.c **** 	(uint8 CYXDATA *)CYREG_PRT3_AG, 
 351:Generated_Source\PSoC5/cyfitter_cfg.c **** 	(uint8 CYXDATA *)CYREG_PRT3_AG, 
 352:Generated_Source\PSoC5/cyfitter_cfg.c **** 	(uint8 CYXDATA *)CYREG_PRT3_AG, 
 353:Generated_Source\PSoC5/cyfitter_cfg.c **** };
 354:Generated_Source\PSoC5/cyfitter_cfg.c **** 
 355:Generated_Source\PSoC5/cyfitter_cfg.c **** static const uint8 CYCODE A_SENS__outerMask[3] = {
 356:Generated_Source\PSoC5/cyfitter_cfg.c **** 	0x01u, 
 357:Generated_Source\PSoC5/cyfitter_cfg.c **** 	0x02u, 
 358:Generated_Source\PSoC5/cyfitter_cfg.c **** 	0x04u, 
 359:Generated_Source\PSoC5/cyfitter_cfg.c **** };
 360:Generated_Source\PSoC5/cyfitter_cfg.c **** 
 361:Generated_Source\PSoC5/cyfitter_cfg.c **** static uint8 CYXDATA * const CYCODE A_SENS__innerAddr[2] = {
 362:Generated_Source\PSoC5/cyfitter_cfg.c **** 	(uint8 CYXDATA *)CYREG_DSM0_SW0, 
 363:Generated_Source\PSoC5/cyfitter_cfg.c **** 	(uint8 CYXDATA *)CYREG_DSM0_SW0, 
 364:Generated_Source\PSoC5/cyfitter_cfg.c **** };
 365:Generated_Source\PSoC5/cyfitter_cfg.c **** 
 366:Generated_Source\PSoC5/cyfitter_cfg.c **** static const uint8 CYCODE A_SENS__innerMask[2] = {
 367:Generated_Source\PSoC5/cyfitter_cfg.c **** 	0x20u, 
 368:Generated_Source\PSoC5/cyfitter_cfg.c **** 	0x40u, 
 369:Generated_Source\PSoC5/cyfitter_cfg.c **** };
 370:Generated_Source\PSoC5/cyfitter_cfg.c **** 
 371:Generated_Source\PSoC5/cyfitter_cfg.c **** static const uint8 CYCODE A_SENS__innerMap[3] = {
 372:Generated_Source\PSoC5/cyfitter_cfg.c **** 	0u, 
 373:Generated_Source\PSoC5/cyfitter_cfg.c **** 	0u, 
 374:Generated_Source\PSoC5/cyfitter_cfg.c **** 	1u, 
 375:Generated_Source\PSoC5/cyfitter_cfg.c **** };
 376:Generated_Source\PSoC5/cyfitter_cfg.c **** 
 377:Generated_Source\PSoC5/cyfitter_cfg.c **** static uint8 A_SENS__armsEnabled = 0u;
 378:Generated_Source\PSoC5/cyfitter_cfg.c **** static uint8 A_SENS__refCnt[] = {0u, 0u};
 379:Generated_Source\PSoC5/cyfitter_cfg.c **** 
 380:Generated_Source\PSoC5/cyfitter_cfg.c **** /*******************************************************************************
 381:Generated_Source\PSoC5/cyfitter_cfg.c **** * Function Name: A_SENS_Set
 382:Generated_Source\PSoC5/cyfitter_cfg.c **** ********************************************************************************
 383:Generated_Source\PSoC5/cyfitter_cfg.c **** * Summary:
 384:Generated_Source\PSoC5/cyfitter_cfg.c **** *  This function is used to set a particular channel as active on the AMux.
 385:Generated_Source\PSoC5/cyfitter_cfg.c **** *
 386:Generated_Source\PSoC5/cyfitter_cfg.c **** * Parameters:  
 387:Generated_Source\PSoC5/cyfitter_cfg.c **** *   channel - The mux channel input to set as active
 388:Generated_Source\PSoC5/cyfitter_cfg.c **** *
 389:Generated_Source\PSoC5/cyfitter_cfg.c **** * Return:
ARM GAS  C:\Users\Kotori\AppData\Local\Temp\cccJuZm6.s 			page 16


 390:Generated_Source\PSoC5/cyfitter_cfg.c **** *   void
 391:Generated_Source\PSoC5/cyfitter_cfg.c **** *
 392:Generated_Source\PSoC5/cyfitter_cfg.c **** *******************************************************************************/
 393:Generated_Source\PSoC5/cyfitter_cfg.c **** void A_SENS_Set(uint8 channel)
 394:Generated_Source\PSoC5/cyfitter_cfg.c **** {
 428              		.loc 1 394 0
 429              		.cfi_startproc
 430              		@ args = 0, pretend = 0, frame = 0
 431              		@ frame_needed = 0, uses_anonymous_args = 0
 432              		@ link register save eliminated.
 433              	.LVL32:
 395:Generated_Source\PSoC5/cyfitter_cfg.c **** 	uint8 i;
 396:Generated_Source\PSoC5/cyfitter_cfg.c **** 	uint8 channelMask = (1UL << channel);
 434              		.loc 1 396 0
 435 0000 0123     		movs	r3, #1
 436 0002 8340     		lsls	r3, r3, r0
 437              	.LVL33:
 397:Generated_Source\PSoC5/cyfitter_cfg.c **** 	if ((channel < 3u) && ((A_SENS__armsEnabled & channelMask) == ((uint32)0u)))
 438              		.loc 1 397 0
 439 0004 0228     		cmp	r0, #2
 440 0006 23D8     		bhi	.L34
 441 0008 DBB2     		uxtb	r3, r3
 442              		.loc 1 397 0 is_stmt 0 discriminator 1
 443 000a 124A     		ldr	r2, .L35
 444 000c 1278     		ldrb	r2, [r2]	@ zero_extendqisi2
 445 000e 1342     		tst	r3, r2
 446 0010 1ED1     		bne	.L34
 394:Generated_Source\PSoC5/cyfitter_cfg.c **** 	uint8 i;
 447              		.loc 1 394 0 is_stmt 1
 448 0012 10B4     		push	{r4}
 449              		.cfi_def_cfa_offset 4
 450              		.cfi_offset 4, -4
 398:Generated_Source\PSoC5/cyfitter_cfg.c **** 	{
 399:Generated_Source\PSoC5/cyfitter_cfg.c **** 		A_SENS__armsEnabled |= channelMask;
 451              		.loc 1 399 0
 452 0014 0F49     		ldr	r1, .L35
 453 0016 1343     		orrs	r3, r3, r2
 454              	.LVL34:
 455 0018 0B70     		strb	r3, [r1]
 400:Generated_Source\PSoC5/cyfitter_cfg.c **** 		*A_SENS__outerAddr[channel] |= A_SENS__outerMask[channel];
 456              		.loc 1 400 0
 457 001a 0F4B     		ldr	r3, .L35+4
 458 001c 53F82020 		ldr	r2, [r3, r0, lsl #2]
 459 0020 1844     		add	r0, r0, r3
 460              	.LVL35:
 461 0022 047B     		ldrb	r4, [r0, #12]	@ zero_extendqisi2
 462 0024 1378     		ldrb	r3, [r2]	@ zero_extendqisi2
 463 0026 2343     		orrs	r3, r3, r4
 464 0028 1370     		strb	r3, [r2]
 401:Generated_Source\PSoC5/cyfitter_cfg.c **** 		i = A_SENS__innerMap[channel];
 465              		.loc 1 401 0
 466 002a 037C     		ldrb	r3, [r0, #16]	@ zero_extendqisi2
 402:Generated_Source\PSoC5/cyfitter_cfg.c **** 		if (A_SENS__refCnt[i] == 0u)
 467              		.loc 1 402 0
 468 002c 1944     		add	r1, r1, r3
 469 002e 0A79     		ldrb	r2, [r1, #4]	@ zero_extendqisi2
 470 0030 42B9     		cbnz	r2, .L31
ARM GAS  C:\Users\Kotori\AppData\Local\Temp\cccJuZm6.s 			page 17


 403:Generated_Source\PSoC5/cyfitter_cfg.c **** 		{
 404:Generated_Source\PSoC5/cyfitter_cfg.c **** 			*A_SENS__innerAddr[i] |= A_SENS__innerMask[i];
 471              		.loc 1 404 0
 472 0032 094A     		ldr	r2, .L35+4
 473 0034 02EB8301 		add	r1, r2, r3, lsl #2
 474 0038 4969     		ldr	r1, [r1, #20]
 475 003a 1A44     		add	r2, r2, r3
 476 003c 107F     		ldrb	r0, [r2, #28]	@ zero_extendqisi2
 477              	.LVL36:
 478 003e 0A78     		ldrb	r2, [r1]	@ zero_extendqisi2
 479 0040 0243     		orrs	r2, r2, r0
 480 0042 0A70     		strb	r2, [r1]
 481              	.L31:
 405:Generated_Source\PSoC5/cyfitter_cfg.c **** 		}
 406:Generated_Source\PSoC5/cyfitter_cfg.c **** 		A_SENS__refCnt[i]++;
 482              		.loc 1 406 0
 483 0044 034A     		ldr	r2, .L35
 484 0046 1344     		add	r3, r3, r2
 485 0048 1A79     		ldrb	r2, [r3, #4]	@ zero_extendqisi2
 486 004a 0132     		adds	r2, r2, #1
 487 004c 1A71     		strb	r2, [r3, #4]
 407:Generated_Source\PSoC5/cyfitter_cfg.c **** 	}
 408:Generated_Source\PSoC5/cyfitter_cfg.c **** }
 488              		.loc 1 408 0
 489 004e 10BC     		pop	{r4}
 490              		.cfi_restore 4
 491              		.cfi_def_cfa_offset 0
 492              	.L34:
 493 0050 7047     		bx	lr
 494              	.L36:
 495 0052 00BF     		.align	2
 496              	.L35:
 497 0054 00000000 		.word	.LANCHOR0
 498 0058 00000000 		.word	.LANCHOR1
 499              		.cfi_endproc
 500              	.LFE8:
 501              		.size	A_SENS_Set, .-A_SENS_Set
 502              		.section	.text.A_SENS_Unset,"ax",%progbits
 503              		.align	2
 504              		.global	A_SENS_Unset
 505              		.thumb
 506              		.thumb_func
 507              		.type	A_SENS_Unset, %function
 508              	A_SENS_Unset:
 509              	.LFB9:
 409:Generated_Source\PSoC5/cyfitter_cfg.c **** 
 410:Generated_Source\PSoC5/cyfitter_cfg.c **** /*******************************************************************************
 411:Generated_Source\PSoC5/cyfitter_cfg.c **** * Function Name: A_SENS_Unset
 412:Generated_Source\PSoC5/cyfitter_cfg.c **** ********************************************************************************
 413:Generated_Source\PSoC5/cyfitter_cfg.c **** * Summary:
 414:Generated_Source\PSoC5/cyfitter_cfg.c **** *  This function is used to clear a particular channel from being active on the
 415:Generated_Source\PSoC5/cyfitter_cfg.c **** *  AMux.
 416:Generated_Source\PSoC5/cyfitter_cfg.c **** *
 417:Generated_Source\PSoC5/cyfitter_cfg.c **** * Parameters:  
 418:Generated_Source\PSoC5/cyfitter_cfg.c **** *   channel - The mux channel input to mark inactive
 419:Generated_Source\PSoC5/cyfitter_cfg.c **** *
 420:Generated_Source\PSoC5/cyfitter_cfg.c **** * Return:
ARM GAS  C:\Users\Kotori\AppData\Local\Temp\cccJuZm6.s 			page 18


 421:Generated_Source\PSoC5/cyfitter_cfg.c **** *   void
 422:Generated_Source\PSoC5/cyfitter_cfg.c **** *
 423:Generated_Source\PSoC5/cyfitter_cfg.c **** *******************************************************************************/
 424:Generated_Source\PSoC5/cyfitter_cfg.c **** void A_SENS_Unset(uint8 channel)
 425:Generated_Source\PSoC5/cyfitter_cfg.c **** {
 510              		.loc 1 425 0
 511              		.cfi_startproc
 512              		@ args = 0, pretend = 0, frame = 0
 513              		@ frame_needed = 0, uses_anonymous_args = 0
 514              		@ link register save eliminated.
 515              	.LVL37:
 426:Generated_Source\PSoC5/cyfitter_cfg.c **** 	uint8 i;
 427:Generated_Source\PSoC5/cyfitter_cfg.c **** 	uint8 channelMask = (1UL << channel);
 516              		.loc 1 427 0
 517 0000 0123     		movs	r3, #1
 518 0002 8340     		lsls	r3, r3, r0
 519              	.LVL38:
 428:Generated_Source\PSoC5/cyfitter_cfg.c **** 	if ((channel < 3u) && ((A_SENS__armsEnabled & channelMask) != ((uint32)0u)))
 520              		.loc 1 428 0
 521 0004 0228     		cmp	r0, #2
 522 0006 24D8     		bhi	.L41
 523 0008 DBB2     		uxtb	r3, r3
 524              		.loc 1 428 0 is_stmt 0 discriminator 1
 525 000a 124A     		ldr	r2, .L42
 526 000c 1278     		ldrb	r2, [r2]	@ zero_extendqisi2
 527 000e 1342     		tst	r3, r2
 528 0010 1FD0     		beq	.L41
 425:Generated_Source\PSoC5/cyfitter_cfg.c **** 	uint8 i;
 529              		.loc 1 425 0 is_stmt 1
 530 0012 10B4     		push	{r4}
 531              		.cfi_def_cfa_offset 4
 532              		.cfi_offset 4, -4
 429:Generated_Source\PSoC5/cyfitter_cfg.c **** 	{
 430:Generated_Source\PSoC5/cyfitter_cfg.c **** 		A_SENS__armsEnabled &= (uint8)~channelMask;
 533              		.loc 1 430 0
 534 0014 0F49     		ldr	r1, .L42
 535 0016 22EA0303 		bic	r3, r2, r3
 536              	.LVL39:
 537 001a 0B70     		strb	r3, [r1]
 431:Generated_Source\PSoC5/cyfitter_cfg.c **** 		*A_SENS__outerAddr[channel] &= (uint8)~A_SENS__outerMask[channel];
 538              		.loc 1 431 0
 539 001c 0E4B     		ldr	r3, .L42+4
 540 001e 53F82020 		ldr	r2, [r3, r0, lsl #2]
 541 0022 1844     		add	r0, r0, r3
 542              	.LVL40:
 543 0024 047B     		ldrb	r4, [r0, #12]	@ zero_extendqisi2
 544 0026 1378     		ldrb	r3, [r2]	@ zero_extendqisi2
 545 0028 23EA0403 		bic	r3, r3, r4
 546 002c 1370     		strb	r3, [r2]
 432:Generated_Source\PSoC5/cyfitter_cfg.c **** 		i = A_SENS__innerMap[channel];
 547              		.loc 1 432 0
 548 002e 007C     		ldrb	r0, [r0, #16]	@ zero_extendqisi2
 549              	.LVL41:
 433:Generated_Source\PSoC5/cyfitter_cfg.c **** 		A_SENS__refCnt[i]--;
 550              		.loc 1 433 0
 551 0030 0A18     		adds	r2, r1, r0
 552 0032 1379     		ldrb	r3, [r2, #4]	@ zero_extendqisi2
ARM GAS  C:\Users\Kotori\AppData\Local\Temp\cccJuZm6.s 			page 19


 553 0034 013B     		subs	r3, r3, #1
 554 0036 DBB2     		uxtb	r3, r3
 555 0038 1371     		strb	r3, [r2, #4]
 434:Generated_Source\PSoC5/cyfitter_cfg.c **** 		if (A_SENS__refCnt[i] == 0)
 556              		.loc 1 434 0
 557 003a 4BB9     		cbnz	r3, .L37
 435:Generated_Source\PSoC5/cyfitter_cfg.c **** 		{
 436:Generated_Source\PSoC5/cyfitter_cfg.c **** 			*A_SENS__innerAddr[i] &= (uint8)~A_SENS__innerMask[i];
 558              		.loc 1 436 0
 559 003c 064B     		ldr	r3, .L42+4
 560 003e 03EB8002 		add	r2, r3, r0, lsl #2
 561 0042 5269     		ldr	r2, [r2, #20]
 562 0044 1844     		add	r0, r0, r3
 563 0046 017F     		ldrb	r1, [r0, #28]	@ zero_extendqisi2
 564 0048 1378     		ldrb	r3, [r2]	@ zero_extendqisi2
 565 004a 23EA0103 		bic	r3, r3, r1
 566 004e 1370     		strb	r3, [r2]
 567              	.L37:
 437:Generated_Source\PSoC5/cyfitter_cfg.c **** 		}
 438:Generated_Source\PSoC5/cyfitter_cfg.c **** 	}
 439:Generated_Source\PSoC5/cyfitter_cfg.c **** }
 568              		.loc 1 439 0
 569 0050 10BC     		pop	{r4}
 570              		.cfi_restore 4
 571              		.cfi_def_cfa_offset 0
 572              	.L41:
 573 0052 7047     		bx	lr
 574              	.L43:
 575              		.align	2
 576              	.L42:
 577 0054 00000000 		.word	.LANCHOR0
 578 0058 00000000 		.word	.LANCHOR1
 579              		.cfi_endproc
 580              	.LFE9:
 581              		.size	A_SENS_Unset, .-A_SENS_Unset
 582              		.section	.text.ADC_AMux_Set,"ax",%progbits
 583              		.align	2
 584              		.global	ADC_AMux_Set
 585              		.thumb
 586              		.thumb_func
 587              		.type	ADC_AMux_Set, %function
 588              	ADC_AMux_Set:
 589              	.LFB10:
 440:Generated_Source\PSoC5/cyfitter_cfg.c **** 
 441:Generated_Source\PSoC5/cyfitter_cfg.c **** /* This is an implementation detail of the AMux. Code that depends on it may be
 442:Generated_Source\PSoC5/cyfitter_cfg.c ****    incompatible with other versions of PSoC Creator. */
 443:Generated_Source\PSoC5/cyfitter_cfg.c **** uint8 CYXDATA * const CYCODE ADC_AMux__addrTable[2] = {
 444:Generated_Source\PSoC5/cyfitter_cfg.c **** 	(uint8 CYXDATA *)CYREG_DSM0_SW3, 
 445:Generated_Source\PSoC5/cyfitter_cfg.c **** 	(uint8 CYXDATA *)CY_AMUX_UNUSED, 
 446:Generated_Source\PSoC5/cyfitter_cfg.c **** };
 447:Generated_Source\PSoC5/cyfitter_cfg.c **** 
 448:Generated_Source\PSoC5/cyfitter_cfg.c **** /* This is an implementation detail of the AMux. Code that depends on it may be
 449:Generated_Source\PSoC5/cyfitter_cfg.c ****    incompatible with other versions of PSoC Creator. */
 450:Generated_Source\PSoC5/cyfitter_cfg.c **** const uint8 CYCODE ADC_AMux__maskTable[2] = {
 451:Generated_Source\PSoC5/cyfitter_cfg.c **** 	0x40u, 
 452:Generated_Source\PSoC5/cyfitter_cfg.c **** 	0x00u, 
 453:Generated_Source\PSoC5/cyfitter_cfg.c **** };
ARM GAS  C:\Users\Kotori\AppData\Local\Temp\cccJuZm6.s 			page 20


 454:Generated_Source\PSoC5/cyfitter_cfg.c **** 
 455:Generated_Source\PSoC5/cyfitter_cfg.c **** /*******************************************************************************
 456:Generated_Source\PSoC5/cyfitter_cfg.c **** * Function Name: ADC_AMux_Set
 457:Generated_Source\PSoC5/cyfitter_cfg.c **** ********************************************************************************
 458:Generated_Source\PSoC5/cyfitter_cfg.c **** * Summary:
 459:Generated_Source\PSoC5/cyfitter_cfg.c **** *  This function is used to set a particular channel as active on the AMux.
 460:Generated_Source\PSoC5/cyfitter_cfg.c **** *
 461:Generated_Source\PSoC5/cyfitter_cfg.c **** * Parameters:  
 462:Generated_Source\PSoC5/cyfitter_cfg.c **** *   channel - The mux channel input to set as active
 463:Generated_Source\PSoC5/cyfitter_cfg.c **** *
 464:Generated_Source\PSoC5/cyfitter_cfg.c **** * Return:
 465:Generated_Source\PSoC5/cyfitter_cfg.c **** *   void
 466:Generated_Source\PSoC5/cyfitter_cfg.c **** *
 467:Generated_Source\PSoC5/cyfitter_cfg.c **** *******************************************************************************/
 468:Generated_Source\PSoC5/cyfitter_cfg.c **** void ADC_AMux_Set(uint8 channel)
 469:Generated_Source\PSoC5/cyfitter_cfg.c **** {
 590              		.loc 1 469 0
 591              		.cfi_startproc
 592              		@ args = 0, pretend = 0, frame = 0
 593              		@ frame_needed = 0, uses_anonymous_args = 0
 594              		@ link register save eliminated.
 595              	.LVL42:
 470:Generated_Source\PSoC5/cyfitter_cfg.c **** 	if (channel < 2)
 596              		.loc 1 470 0
 597 0000 0128     		cmp	r0, #1
 598 0002 09D8     		bhi	.L44
 471:Generated_Source\PSoC5/cyfitter_cfg.c **** 	{
 472:Generated_Source\PSoC5/cyfitter_cfg.c **** 		*ADC_AMux__addrTable[channel] |= ADC_AMux__maskTable[channel];
 599              		.loc 1 472 0
 600 0004 054B     		ldr	r3, .L46
 601 0006 03EB8002 		add	r2, r3, r0, lsl #2
 602 000a 126A     		ldr	r2, [r2, #32]
 603 000c 1844     		add	r0, r0, r3
 604              	.LVL43:
 605 000e 90F82810 		ldrb	r1, [r0, #40]	@ zero_extendqisi2
 606 0012 1378     		ldrb	r3, [r2]	@ zero_extendqisi2
 607 0014 0B43     		orrs	r3, r3, r1
 608 0016 1370     		strb	r3, [r2]
 609              	.L44:
 610 0018 7047     		bx	lr
 611              	.L47:
 612 001a 00BF     		.align	2
 613              	.L46:
 614 001c 00000000 		.word	.LANCHOR1
 615              		.cfi_endproc
 616              	.LFE10:
 617              		.size	ADC_AMux_Set, .-ADC_AMux_Set
 618              		.section	.text.ADC_AMux_Unset,"ax",%progbits
 619              		.align	2
 620              		.global	ADC_AMux_Unset
 621              		.thumb
 622              		.thumb_func
 623              		.type	ADC_AMux_Unset, %function
 624              	ADC_AMux_Unset:
 625              	.LFB11:
 473:Generated_Source\PSoC5/cyfitter_cfg.c **** 	}
 474:Generated_Source\PSoC5/cyfitter_cfg.c **** }
ARM GAS  C:\Users\Kotori\AppData\Local\Temp\cccJuZm6.s 			page 21


 475:Generated_Source\PSoC5/cyfitter_cfg.c **** 
 476:Generated_Source\PSoC5/cyfitter_cfg.c **** /*******************************************************************************
 477:Generated_Source\PSoC5/cyfitter_cfg.c **** * Function Name: ADC_AMux_Unset
 478:Generated_Source\PSoC5/cyfitter_cfg.c **** ********************************************************************************
 479:Generated_Source\PSoC5/cyfitter_cfg.c **** * Summary:
 480:Generated_Source\PSoC5/cyfitter_cfg.c **** *  This function is used to clear a particular channel from being active on the
 481:Generated_Source\PSoC5/cyfitter_cfg.c **** *  AMux.
 482:Generated_Source\PSoC5/cyfitter_cfg.c **** *
 483:Generated_Source\PSoC5/cyfitter_cfg.c **** * Parameters:  
 484:Generated_Source\PSoC5/cyfitter_cfg.c **** *   channel - The mux channel input to mark inactive
 485:Generated_Source\PSoC5/cyfitter_cfg.c **** *
 486:Generated_Source\PSoC5/cyfitter_cfg.c **** * Return:
 487:Generated_Source\PSoC5/cyfitter_cfg.c **** *   void
 488:Generated_Source\PSoC5/cyfitter_cfg.c **** *
 489:Generated_Source\PSoC5/cyfitter_cfg.c **** *******************************************************************************/
 490:Generated_Source\PSoC5/cyfitter_cfg.c **** void ADC_AMux_Unset(uint8 channel)
 491:Generated_Source\PSoC5/cyfitter_cfg.c **** {
 626              		.loc 1 491 0
 627              		.cfi_startproc
 628              		@ args = 0, pretend = 0, frame = 0
 629              		@ frame_needed = 0, uses_anonymous_args = 0
 630              		@ link register save eliminated.
 631              	.LVL44:
 492:Generated_Source\PSoC5/cyfitter_cfg.c **** 	if (channel < 2)
 632              		.loc 1 492 0
 633 0000 0128     		cmp	r0, #1
 634 0002 0AD8     		bhi	.L48
 493:Generated_Source\PSoC5/cyfitter_cfg.c **** 	{
 494:Generated_Source\PSoC5/cyfitter_cfg.c **** 		*ADC_AMux__addrTable[channel] &= (uint8)~ADC_AMux__maskTable[channel];
 635              		.loc 1 494 0
 636 0004 054B     		ldr	r3, .L50
 637 0006 03EB8002 		add	r2, r3, r0, lsl #2
 638 000a 126A     		ldr	r2, [r2, #32]
 639 000c 1844     		add	r0, r0, r3
 640              	.LVL45:
 641 000e 90F82810 		ldrb	r1, [r0, #40]	@ zero_extendqisi2
 642 0012 1378     		ldrb	r3, [r2]	@ zero_extendqisi2
 643 0014 23EA0103 		bic	r3, r3, r1
 644 0018 1370     		strb	r3, [r2]
 645              	.L48:
 646 001a 7047     		bx	lr
 647              	.L51:
 648              		.align	2
 649              	.L50:
 650 001c 00000000 		.word	.LANCHOR1
 651              		.cfi_endproc
 652              	.LFE11:
 653              		.size	ADC_AMux_Unset, .-ADC_AMux_Unset
 654              		.section	.text.cyfitter_cfg,"ax",%progbits
 655              		.align	2
 656              		.global	cyfitter_cfg
 657              		.thumb
 658              		.thumb_func
 659              		.type	cyfitter_cfg, %function
 660              	cyfitter_cfg:
 661              	.LFB12:
 495:Generated_Source\PSoC5/cyfitter_cfg.c **** 	}
ARM GAS  C:\Users\Kotori\AppData\Local\Temp\cccJuZm6.s 			page 22


 496:Generated_Source\PSoC5/cyfitter_cfg.c **** }
 497:Generated_Source\PSoC5/cyfitter_cfg.c **** 
 498:Generated_Source\PSoC5/cyfitter_cfg.c **** 
 499:Generated_Source\PSoC5/cyfitter_cfg.c **** 
 500:Generated_Source\PSoC5/cyfitter_cfg.c **** /*******************************************************************************
 501:Generated_Source\PSoC5/cyfitter_cfg.c **** * Function Name: cyfitter_cfg
 502:Generated_Source\PSoC5/cyfitter_cfg.c **** ********************************************************************************
 503:Generated_Source\PSoC5/cyfitter_cfg.c **** * Summary:
 504:Generated_Source\PSoC5/cyfitter_cfg.c **** *  This function is called by the start-up code for the selected device. It
 505:Generated_Source\PSoC5/cyfitter_cfg.c **** *  performs all of the necessary device configuration based on the design
 506:Generated_Source\PSoC5/cyfitter_cfg.c **** *  settings.  This includes settings from the Design Wide Resources (DWR) such
 507:Generated_Source\PSoC5/cyfitter_cfg.c **** *  as Clocks and Pins as well as any component configuration that is necessary.
 508:Generated_Source\PSoC5/cyfitter_cfg.c **** *
 509:Generated_Source\PSoC5/cyfitter_cfg.c **** * Parameters:
 510:Generated_Source\PSoC5/cyfitter_cfg.c **** *   void
 511:Generated_Source\PSoC5/cyfitter_cfg.c **** *
 512:Generated_Source\PSoC5/cyfitter_cfg.c **** * Return:
 513:Generated_Source\PSoC5/cyfitter_cfg.c **** *   void
 514:Generated_Source\PSoC5/cyfitter_cfg.c **** *
 515:Generated_Source\PSoC5/cyfitter_cfg.c **** *******************************************************************************/
 516:Generated_Source\PSoC5/cyfitter_cfg.c **** 
 517:Generated_Source\PSoC5/cyfitter_cfg.c **** void cyfitter_cfg(void)
 518:Generated_Source\PSoC5/cyfitter_cfg.c **** {
 662              		.loc 1 518 0
 663              		.cfi_startproc
 664              		@ args = 0, pretend = 0, frame = 0
 665              		@ frame_needed = 0, uses_anonymous_args = 0
 666 0000 38B5     		push	{r3, r4, r5, lr}
 667              		.cfi_def_cfa_offset 16
 668              		.cfi_offset 3, -16
 669              		.cfi_offset 4, -12
 670              		.cfi_offset 5, -8
 671              		.cfi_offset 14, -4
 519:Generated_Source\PSoC5/cyfitter_cfg.c **** #ifdef CYGlobalIntDisable
 520:Generated_Source\PSoC5/cyfitter_cfg.c **** 	/* Disable interrupts by default. Let user enable if/when they want. */
 521:Generated_Source\PSoC5/cyfitter_cfg.c **** 	CYGlobalIntDisable
 672              		.loc 1 521 0
 673              		.syntax unified
 674              	@ 521 "Generated_Source\PSoC5\cyfitter_cfg.c" 1
 675 0002 72B6     		CPSID   i
 676              	@ 0 "" 2
 522:Generated_Source\PSoC5/cyfitter_cfg.c **** #endif
 523:Generated_Source\PSoC5/cyfitter_cfg.c **** 
 524:Generated_Source\PSoC5/cyfitter_cfg.c **** 	/* Enable/Disable Debug functionality based on settings from System DWR */
 525:Generated_Source\PSoC5/cyfitter_cfg.c **** 	CY_SET_XTND_REG8((void CYFAR *)CYREG_MLOGIC_DEBUG, (CY_GET_XTND_REG8((void CYFAR *)CYREG_MLOGIC_DE
 677              		.loc 1 525 0
 678              		.thumb
 679              		.syntax unified
 680 0004 364A     		ldr	r2, .L58
 681 0006 1378     		ldrb	r3, [r2]	@ zero_extendqisi2
 682 0008 43F00403 		orr	r3, r3, #4
 683 000c 1370     		strb	r3, [r2]
 684              	.LVL46:
 685              	.LBB3:
 526:Generated_Source\PSoC5/cyfitter_cfg.c **** 
 527:Generated_Source\PSoC5/cyfitter_cfg.c **** 	{
 528:Generated_Source\PSoC5/cyfitter_cfg.c **** 
ARM GAS  C:\Users\Kotori\AppData\Local\Temp\cccJuZm6.s 			page 23


 529:Generated_Source\PSoC5/cyfitter_cfg.c **** 		CYPACKED typedef struct {
 530:Generated_Source\PSoC5/cyfitter_cfg.c **** 			void CYFAR *address;
 531:Generated_Source\PSoC5/cyfitter_cfg.c **** 			uint16 size;
 532:Generated_Source\PSoC5/cyfitter_cfg.c **** 		} CYPACKED_ATTR cfg_memset_t;
 533:Generated_Source\PSoC5/cyfitter_cfg.c **** 
 534:Generated_Source\PSoC5/cyfitter_cfg.c **** 
 535:Generated_Source\PSoC5/cyfitter_cfg.c **** 		CYPACKED typedef struct {
 536:Generated_Source\PSoC5/cyfitter_cfg.c **** 			void CYFAR *dest;
 537:Generated_Source\PSoC5/cyfitter_cfg.c **** 			const void CYFAR *src;
 538:Generated_Source\PSoC5/cyfitter_cfg.c **** 			uint16 size;
 539:Generated_Source\PSoC5/cyfitter_cfg.c **** 		} CYPACKED_ATTR cfg_memcpy_t;
 540:Generated_Source\PSoC5/cyfitter_cfg.c **** 
 541:Generated_Source\PSoC5/cyfitter_cfg.c **** 		static const cfg_memset_t CYCODE cfg_memset_list[] = {
 542:Generated_Source\PSoC5/cyfitter_cfg.c **** 			/* address, size */
 543:Generated_Source\PSoC5/cyfitter_cfg.c **** 			{(void CYFAR *)(CYREG_TMR0_CFG0), 12u},
 544:Generated_Source\PSoC5/cyfitter_cfg.c **** 			{(void CYFAR *)(CYREG_PRT4_DR), 48u},
 545:Generated_Source\PSoC5/cyfitter_cfg.c **** 			{(void CYFAR *)(CYREG_PRT12_DR), 16u},
 546:Generated_Source\PSoC5/cyfitter_cfg.c **** 			{(void CYFAR *)(CYREG_PRT15_DR), 16u},
 547:Generated_Source\PSoC5/cyfitter_cfg.c **** 			{(void CYFAR *)(CYDEV_UCFG_B0_P0_U0_BASE), 4096u},
 548:Generated_Source\PSoC5/cyfitter_cfg.c **** 			{(void CYFAR *)(CYDEV_UCFG_B1_P2_U0_BASE), 128u},
 549:Generated_Source\PSoC5/cyfitter_cfg.c **** 			{(void CYFAR *)(CYDEV_UCFG_B1_P2_ROUTE_BASE), 1792u},
 550:Generated_Source\PSoC5/cyfitter_cfg.c **** 			{(void CYFAR *)(CYDEV_UCFG_DSI0_BASE), 2560u},
 551:Generated_Source\PSoC5/cyfitter_cfg.c **** 			{(void CYFAR *)(CYDEV_UCFG_DSI12_BASE), 512u},
 552:Generated_Source\PSoC5/cyfitter_cfg.c **** 			{(void CYFAR *)(CYREG_BCTL0_MDCLK_EN), 32u},
 553:Generated_Source\PSoC5/cyfitter_cfg.c **** 		};
 554:Generated_Source\PSoC5/cyfitter_cfg.c **** 
 555:Generated_Source\PSoC5/cyfitter_cfg.c **** 		static const cfg_memcpy_t CYCODE cfg_memcpy_list [] = {
 556:Generated_Source\PSoC5/cyfitter_cfg.c **** 			/* dest, src, size */
 557:Generated_Source\PSoC5/cyfitter_cfg.c **** 			{(void CYFAR *)(CYDEV_UCFG_B1_P2_U1_BASE), BS_UDB_1_0_1_CONFIG_VAL, 128u},
 558:Generated_Source\PSoC5/cyfitter_cfg.c **** 		};
 559:Generated_Source\PSoC5/cyfitter_cfg.c **** 
 560:Generated_Source\PSoC5/cyfitter_cfg.c **** 		uint8 CYDATA i;
 561:Generated_Source\PSoC5/cyfitter_cfg.c **** 
 562:Generated_Source\PSoC5/cyfitter_cfg.c **** 		/* Zero out critical memory blocks before beginning configuration */
 563:Generated_Source\PSoC5/cyfitter_cfg.c **** 		for (i = 0u; i < (sizeof(cfg_memset_list)/sizeof(cfg_memset_list[0])); i++)
 686              		.loc 1 563 0
 687 000e 0024     		movs	r4, #0
 688 0010 0BE0     		b	.L53
 689              	.LVL47:
 690              	.L54:
 691              	.LBB4:
 564:Generated_Source\PSoC5/cyfitter_cfg.c **** 		{
 565:Generated_Source\PSoC5/cyfitter_cfg.c **** 			const cfg_memset_t CYCODE * CYDATA ms = &cfg_memset_list[i];
 566:Generated_Source\PSoC5/cyfitter_cfg.c **** 			CYMEMZERO(ms->address, (size_t)(uint32)(ms->size));
 692              		.loc 1 566 0 discriminator 3
 693 0012 3448     		ldr	r0, .L58+4
 694 0014 6300     		lsls	r3, r4, #1
 695 0016 1A19     		adds	r2, r3, r4
 696 0018 5100     		lsls	r1, r2, #1
 697 001a 0144     		add	r1, r1, r0
 698 001c 0A46     		mov	r2, r1
 699 001e 098E     		ldrh	r1, [r1, #48]
 700 0020 D06A     		ldr	r0, [r2, #44]	@ unaligned
 701 0022 FFF7FEFF 		bl	CYMEMZERO
 702              	.LVL48:
 703              	.LBE4:
 563:Generated_Source\PSoC5/cyfitter_cfg.c **** 		{
ARM GAS  C:\Users\Kotori\AppData\Local\Temp\cccJuZm6.s 			page 24


 704              		.loc 1 563 0 discriminator 3
 705 0026 0134     		adds	r4, r4, #1
 706              	.LVL49:
 707 0028 E4B2     		uxtb	r4, r4
 708              	.LVL50:
 709              	.L53:
 563:Generated_Source\PSoC5/cyfitter_cfg.c **** 		{
 710              		.loc 1 563 0 is_stmt 0 discriminator 1
 711 002a 092C     		cmp	r4, #9
 712 002c F1D9     		bls	.L54
 713 002e 0024     		movs	r4, #0
 714              	.LVL51:
 715 0030 0BE0     		b	.L55
 716              	.LVL52:
 717              	.L56:
 718              	.LBB5:
 567:Generated_Source\PSoC5/cyfitter_cfg.c **** 		}
 568:Generated_Source\PSoC5/cyfitter_cfg.c **** 
 569:Generated_Source\PSoC5/cyfitter_cfg.c **** 		/* Copy device configuration data into registers */
 570:Generated_Source\PSoC5/cyfitter_cfg.c **** 		for (i = 0u; i < (sizeof(cfg_memcpy_list)/sizeof(cfg_memcpy_list[0])); i++)
 571:Generated_Source\PSoC5/cyfitter_cfg.c **** 		{
 572:Generated_Source\PSoC5/cyfitter_cfg.c **** 			const cfg_memcpy_t CYCODE * CYDATA mc = &cfg_memcpy_list[i];
 573:Generated_Source\PSoC5/cyfitter_cfg.c **** 			void * CYDATA destPtr = mc->dest;
 719              		.loc 1 573 0 is_stmt 1 discriminator 3
 720 0032 2C49     		ldr	r1, .L58+4
 721 0034 A300     		lsls	r3, r4, #2
 722 0036 1819     		adds	r0, r3, r4
 723 0038 4200     		lsls	r2, r0, #1
 724 003a 8818     		adds	r0, r1, r2
 725              	.LVL53:
 574:Generated_Source\PSoC5/cyfitter_cfg.c **** 			const void * CYDATA srcPtr = mc->src;
 575:Generated_Source\PSoC5/cyfitter_cfg.c **** 			uint16 CYDATA numBytes = mc->size;
 576:Generated_Source\PSoC5/cyfitter_cfg.c **** 			CYCONFIGCPY(destPtr, srcPtr, numBytes);
 726              		.loc 1 576 0 discriminator 3
 727 003c 8022     		movs	r2, #128
 728 003e C16E     		ldr	r1, [r0, #108]	@ unaligned
 729              	.LVL54:
 730 0040 806E     		ldr	r0, [r0, #104]	@ unaligned
 731              	.LVL55:
 732 0042 FFF7FEFF 		bl	CYCONFIGCPY
 733              	.LVL56:
 734              	.LBE5:
 570:Generated_Source\PSoC5/cyfitter_cfg.c **** 		{
 735              		.loc 1 570 0 discriminator 3
 736 0046 0134     		adds	r4, r4, #1
 737              	.LVL57:
 738 0048 E4B2     		uxtb	r4, r4
 739              	.LVL58:
 740              	.L55:
 570:Generated_Source\PSoC5/cyfitter_cfg.c **** 		{
 741              		.loc 1 570 0 is_stmt 0 discriminator 1
 742 004a 002C     		cmp	r4, #0
 743 004c F1D0     		beq	.L56
 577:Generated_Source\PSoC5/cyfitter_cfg.c **** 		}
 578:Generated_Source\PSoC5/cyfitter_cfg.c **** 
 579:Generated_Source\PSoC5/cyfitter_cfg.c **** 		cfg_write_bytes32(cy_cfg_addr_table, cy_cfg_data_table);
 744              		.loc 1 579 0 is_stmt 1
ARM GAS  C:\Users\Kotori\AppData\Local\Temp\cccJuZm6.s 			page 25


 745 004e 2649     		ldr	r1, .L58+8
 746 0050 4FF09040 		mov	r0, #1207959552
 747 0054 FFF7FEFF 		bl	cfg_write_bytes32
 748              	.LVL59:
 580:Generated_Source\PSoC5/cyfitter_cfg.c **** 
 581:Generated_Source\PSoC5/cyfitter_cfg.c **** 		/* Perform normal device configuration. Order is not critical for these items. */
 582:Generated_Source\PSoC5/cyfitter_cfg.c **** 		CY_SET_XTND_REG8((void CYFAR *)(CYREG_DSM0_CR3), 0x0Au);
 749              		.loc 1 582 0
 750 0058 0A25     		movs	r5, #10
 751 005a 244B     		ldr	r3, .L58+12
 752 005c 1D70     		strb	r5, [r3]
 583:Generated_Source\PSoC5/cyfitter_cfg.c **** 
 584:Generated_Source\PSoC5/cyfitter_cfg.c **** 		/* Enable digital routing */
 585:Generated_Source\PSoC5/cyfitter_cfg.c **** 		CY_SET_XTND_REG8((void CYFAR *)CYREG_BCTL0_BANK_CTL, CY_GET_XTND_REG8((void CYFAR *)CYREG_BCTL0_B
 753              		.loc 1 585 0
 754 005e 244A     		ldr	r2, .L58+16
 755 0060 1378     		ldrb	r3, [r2]	@ zero_extendqisi2
 756 0062 43F00203 		orr	r3, r3, #2
 757 0066 1370     		strb	r3, [r2]
 586:Generated_Source\PSoC5/cyfitter_cfg.c **** 		CY_SET_XTND_REG8((void CYFAR *)CYREG_BCTL1_BANK_CTL, CY_GET_XTND_REG8((void CYFAR *)CYREG_BCTL1_B
 758              		.loc 1 586 0
 759 0068 1032     		adds	r2, r2, #16
 760 006a 1378     		ldrb	r3, [r2]	@ zero_extendqisi2
 761 006c 43F00203 		orr	r3, r3, #2
 762 0070 1370     		strb	r3, [r2]
 587:Generated_Source\PSoC5/cyfitter_cfg.c **** 
 588:Generated_Source\PSoC5/cyfitter_cfg.c **** 		/* Enable UDB array */
 589:Generated_Source\PSoC5/cyfitter_cfg.c **** 		CY_SET_XTND_REG8((void CYFAR *)CYREG_PM_ACT_CFG0, CY_GET_XTND_REG8((void CYFAR *)CYREG_PM_ACT_CFG
 763              		.loc 1 589 0
 764 0072 204C     		ldr	r4, .L58+20
 765              	.LVL60:
 766 0074 2378     		ldrb	r3, [r4]	@ zero_extendqisi2
 767 0076 43F04003 		orr	r3, r3, #64
 768 007a 2370     		strb	r3, [r4]
 590:Generated_Source\PSoC5/cyfitter_cfg.c **** 		CY_SET_XTND_REG8((void CYFAR *)CYREG_PM_AVAIL_CR2, CY_GET_XTND_REG8((void CYFAR *)CYREG_PM_AVAIL_
 769              		.loc 1 590 0
 770 007c A2F58632 		sub	r2, r2, #68608
 771 0080 513A     		subs	r2, r2, #81
 772 0082 1378     		ldrb	r3, [r2]	@ zero_extendqisi2
 773 0084 43F01003 		orr	r3, r3, #16
 774 0088 1370     		strb	r3, [r2]
 775              	.LBE3:
 591:Generated_Source\PSoC5/cyfitter_cfg.c **** 	}
 592:Generated_Source\PSoC5/cyfitter_cfg.c **** 
 593:Generated_Source\PSoC5/cyfitter_cfg.c **** 
 594:Generated_Source\PSoC5/cyfitter_cfg.c **** 	/* Perform second pass device configuration. These items must be configured in specific order afte
 595:Generated_Source\PSoC5/cyfitter_cfg.c **** 	CYCONFIGCPY((void CYFAR *)(CYREG_PRT0_DM0), (const void CYFAR *)(BS_IOPINS0_0_VAL), 8u);
 776              		.loc 1 595 0
 777 008a 0822     		movs	r2, #8
 778 008c 1A49     		ldr	r1, .L58+24
 779 008e 1B48     		ldr	r0, .L58+28
 780 0090 FFF7FEFF 		bl	CYCONFIGCPY
 781              	.LVL61:
 596:Generated_Source\PSoC5/cyfitter_cfg.c **** 	CYCONFIGCPY((void CYFAR *)(CYREG_PRT1_DM0), (const void CYFAR *)(BS_IOPINS0_1_VAL), 8u);
 782              		.loc 1 596 0
 783 0094 0822     		movs	r2, #8
 784 0096 1A49     		ldr	r1, .L58+32
ARM GAS  C:\Users\Kotori\AppData\Local\Temp\cccJuZm6.s 			page 26


 785 0098 1A48     		ldr	r0, .L58+36
 786 009a FFF7FEFF 		bl	CYCONFIGCPY
 787              	.LVL62:
 597:Generated_Source\PSoC5/cyfitter_cfg.c **** 	CYCONFIGCPY((void CYFAR *)(CYREG_PRT2_DM0), (const void CYFAR *)(BS_IOPINS0_2_VAL), 8u);
 788              		.loc 1 597 0
 789 009e 0822     		movs	r2, #8
 790 00a0 1949     		ldr	r1, .L58+40
 791 00a2 1A48     		ldr	r0, .L58+44
 792 00a4 FFF7FEFF 		bl	CYCONFIGCPY
 793              	.LVL63:
 598:Generated_Source\PSoC5/cyfitter_cfg.c **** 	CYCONFIGCPY((void CYFAR *)(CYREG_PRT3_DR), (const void CYFAR *)(BS_IOPINS0_3_VAL), 10u);
 794              		.loc 1 598 0
 795 00a8 2A46     		mov	r2, r5
 796 00aa 1949     		ldr	r1, .L58+48
 797 00ac 1948     		ldr	r0, .L58+52
 798 00ae FFF7FEFF 		bl	CYCONFIGCPY
 799              	.LVL64:
 599:Generated_Source\PSoC5/cyfitter_cfg.c **** 	/* Switch Boost to the precision bandgap reference from its internal reference */
 600:Generated_Source\PSoC5/cyfitter_cfg.c **** 	CY_SET_REG8((void CYXDATA *)CYREG_BOOST_CR2, (CY_GET_REG8((void CYXDATA *)CYREG_BOOST_CR2) | 0x08u
 800              		.loc 1 600 0
 801 00b2 194A     		ldr	r2, .L58+56
 802 00b4 1378     		ldrb	r3, [r2]	@ zero_extendqisi2
 803 00b6 43F00803 		orr	r3, r3, #8
 804 00ba 1370     		strb	r3, [r2]
 601:Generated_Source\PSoC5/cyfitter_cfg.c **** 
 602:Generated_Source\PSoC5/cyfitter_cfg.c **** 	/* Set Flash Cycles based on max possible frequency in case a glitch occurs during ClockSetup(). *
 603:Generated_Source\PSoC5/cyfitter_cfg.c **** 	CY_SET_XTND_REG8((void CYFAR *)(CYREG_CACHE_CC_CTL), (((CYDEV_INSTRUCT_CACHE_ENABLED) != 0) ? 0x61
 805              		.loc 1 603 0
 806 00bc 174D     		ldr	r5, .L58+60
 807 00be 6123     		movs	r3, #97
 808 00c0 2B70     		strb	r3, [r5]
 604:Generated_Source\PSoC5/cyfitter_cfg.c **** 	/* Setup clocks based on selections from Clock DWR */
 605:Generated_Source\PSoC5/cyfitter_cfg.c **** 	ClockSetup();
 809              		.loc 1 605 0
 810 00c2 FFF7FEFF 		bl	ClockSetup
 811              	.LVL65:
 606:Generated_Source\PSoC5/cyfitter_cfg.c **** 	/* Set Flash Cycles based on newly configured 24.00MHz Bus Clock. */
 607:Generated_Source\PSoC5/cyfitter_cfg.c **** 	CY_SET_XTND_REG8((void CYFAR *)(CYREG_CACHE_CC_CTL), (((CYDEV_INSTRUCT_CACHE_ENABLED) != 0) ? 0x81
 812              		.loc 1 607 0
 813 00c6 8123     		movs	r3, #129
 814 00c8 2B70     		strb	r3, [r5]
 608:Generated_Source\PSoC5/cyfitter_cfg.c **** 	CY_SET_XTND_REG8((void CYFAR *)(CYREG_PANTHER_WAITPIPE), 0x01u);
 815              		.loc 1 608 0
 816 00ca 0122     		movs	r2, #1
 817 00cc 144B     		ldr	r3, .L58+64
 818 00ce 1A70     		strb	r2, [r3]
 609:Generated_Source\PSoC5/cyfitter_cfg.c **** 
 610:Generated_Source\PSoC5/cyfitter_cfg.c **** 	/* Perform basic analog initialization to defaults */
 611:Generated_Source\PSoC5/cyfitter_cfg.c **** 	AnalogSetDefault();
 819              		.loc 1 611 0
 820 00d0 FFF7FEFF 		bl	AnalogSetDefault
 821              	.LVL66:
 612:Generated_Source\PSoC5/cyfitter_cfg.c **** 
 613:Generated_Source\PSoC5/cyfitter_cfg.c **** 	/* Configure alternate active mode */
 614:Generated_Source\PSoC5/cyfitter_cfg.c **** 	CYCONFIGCPY((void CYFAR *)CYDEV_PM_STBY_BASE, (const void CYFAR *)CYDEV_PM_ACT_BASE, 14u);
 822              		.loc 1 614 0
 823 00d4 0E22     		movs	r2, #14
ARM GAS  C:\Users\Kotori\AppData\Local\Temp\cccJuZm6.s 			page 27


 824 00d6 2146     		mov	r1, r4
 825 00d8 1248     		ldr	r0, .L58+68
 826 00da FFF7FEFF 		bl	CYCONFIGCPY
 827              	.LVL67:
 828 00de 38BD     		pop	{r3, r4, r5, pc}
 829              	.L59:
 830              		.align	2
 831              	.L58:
 832 00e0 E8460040 		.word	1073759976
 833 00e4 00000000 		.word	.LANCHOR1
 834 00e8 70000048 		.word	1207959664
 835 00ec 83580040 		.word	1073764483
 836 00f0 03500140 		.word	1073827843
 837 00f4 A0430040 		.word	1073759136
 838 00f8 80040048 		.word	1207960704
 839 00fc 02510040 		.word	1073762562
 840 0100 88040048 		.word	1207960712
 841 0104 12510040 		.word	1073762578
 842 0108 90040048 		.word	1207960720
 843 010c 22510040 		.word	1073762594
 844 0110 98040048 		.word	1207960728
 845 0114 30510040 		.word	1073762608
 846 0118 22430040 		.word	1073759010
 847 011c 00480040 		.word	1073760256
 848 0120 04000840 		.word	1074266116
 849 0124 B0430040 		.word	1073759152
 850              		.cfi_endproc
 851              	.LFE12:
 852              		.size	cyfitter_cfg, .-cyfitter_cfg
 853              		.global	ADC_AMux__maskTable
 854              		.global	ADC_AMux__addrTable
 855              		.section	.rodata
 856              		.align	2
 857              		.set	.LANCHOR1,. + 0
 858              		.type	A_SENS__outerAddr, %object
 859              		.size	A_SENS__outerAddr, 12
 860              	A_SENS__outerAddr:
 861 0000 3D510040 		.word	1073762621
 862 0004 3D510040 		.word	1073762621
 863 0008 3D510040 		.word	1073762621
 864              		.type	A_SENS__outerMask, %object
 865              		.size	A_SENS__outerMask, 3
 866              	A_SENS__outerMask:
 867 000c 01       		.byte	1
 868 000d 02       		.byte	2
 869 000e 04       		.byte	4
 870 000f 00       		.space	1
 871              		.type	A_SENS__innerMap, %object
 872              		.size	A_SENS__innerMap, 3
 873              	A_SENS__innerMap:
 874 0010 00       		.byte	0
 875 0011 00       		.byte	0
 876 0012 01       		.byte	1
 877 0013 00       		.space	1
 878              		.type	A_SENS__innerAddr, %object
 879              		.size	A_SENS__innerAddr, 8
 880              	A_SENS__innerAddr:
ARM GAS  C:\Users\Kotori\AppData\Local\Temp\cccJuZm6.s 			page 28


 881 0014 005B0040 		.word	1073765120
 882 0018 005B0040 		.word	1073765120
 883              		.type	A_SENS__innerMask, %object
 884              		.size	A_SENS__innerMask, 2
 885              	A_SENS__innerMask:
 886 001c 20       		.byte	32
 887 001d 40       		.byte	64
 888 001e 0000     		.space	2
 889              		.type	ADC_AMux__addrTable, %object
 890              		.size	ADC_AMux__addrTable, 8
 891              	ADC_AMux__addrTable:
 892 0020 035B0040 		.word	1073765123
 893 0024 24430040 		.word	1073759012
 894              		.type	ADC_AMux__maskTable, %object
 895              		.size	ADC_AMux__maskTable, 2
 896              	ADC_AMux__maskTable:
 897 0028 40       		.byte	64
 898 0029 00       		.byte	0
 899 002a 0000     		.space	2
 900              		.type	cfg_memset_list.5053, %object
 901              		.size	cfg_memset_list.5053, 60
 902              	cfg_memset_list.5053:
 903 002c 004F0040 		.word	1073762048
 904 0030 0C00     		.short	12
 905 0032 40510040 		.4byte	1073762624
 906 0036 3000     		.short	48
 907 0038 C0510040 		.word	1073762752
 908 003c 1000     		.short	16
 909 003e F0510040 		.4byte	1073762800
 910 0042 1000     		.short	16
 911 0044 00000140 		.word	1073807360
 912 0048 0010     		.short	4096
 913 004a 00140140 		.4byte	1073812480
 914 004e 8000     		.short	128
 915 0050 00150140 		.word	1073812736
 916 0054 0007     		.short	1792
 917 0056 00400140 		.4byte	1073823744
 918 005a 000A     		.short	2560
 919 005c 004C0140 		.word	1073826816
 920 0060 0002     		.short	512
 921 0062 00500140 		.4byte	1073827840
 922 0066 2000     		.short	32
 923              		.type	cfg_memcpy_list.5054, %object
 924              		.size	cfg_memcpy_list.5054, 10
 925              	cfg_memcpy_list.5054:
 926 0068 80140140 		.word	1073812608
 927 006c 00040048 		.word	1207960576
 928 0070 8000     		.short	128
 929              		.bss
 930              		.align	2
 931              		.set	.LANCHOR0,. + 0
 932              		.type	A_SENS__armsEnabled, %object
 933              		.size	A_SENS__armsEnabled, 1
 934              	A_SENS__armsEnabled:
 935 0000 00       		.space	1
 936 0001 000000   		.space	3
 937              		.type	A_SENS__refCnt, %object
ARM GAS  C:\Users\Kotori\AppData\Local\Temp\cccJuZm6.s 			page 29


 938              		.size	A_SENS__refCnt, 2
 939              	A_SENS__refCnt:
 940 0004 0000     		.space	2
 941              		.text
 942              	.Letext0:
 943              		.file 2 "c:\\program files (x86)\\cypress\\psoc creator\\4.2\\psoc creator\\import\\gnu\\arm\\5.4.
 944              		.file 3 "Generated_Source\\PSoC5\\cytypes.h"
 945              		.file 4 "Generated_Source\\PSoC5\\CyLib.h"