ARM GAS  C:\Users\Kotori\AppData\Local\Temp\cccAZwYP.s 			page 1


   1              		.syntax unified
   2              		.cpu cortex-m3
   3              		.fpu softvfp
   4              		.eabi_attribute 20, 1
   5              		.eabi_attribute 21, 1
   6              		.eabi_attribute 23, 3
   7              		.eabi_attribute 24, 1
   8              		.eabi_attribute 25, 1
   9              		.eabi_attribute 26, 1
  10              		.eabi_attribute 30, 1
  11              		.eabi_attribute 34, 1
  12              		.eabi_attribute 18, 4
  13              		.thumb
  14              		.syntax unified
  15              		.file	"main.c"
  16              		.text
  17              	.Ltext0:
  18              		.cfi_sections	.debug_frame
  19              		.section	.text.Rx_ISR_Call,"ax",%progbits
  20              		.align	2
  21              		.global	Rx_ISR_Call
  22              		.thumb
  23              		.thumb_func
  24              		.type	Rx_ISR_Call, %function
  25              	Rx_ISR_Call:
  26              	.LFB64:
  27              		.file 1 "main.c"
   1:main.c        **** /* ========================================
   2:main.c        ****  *
   3:main.c        ****  * Copyright J2DW, 2018
   4:main.c        ****  * All Rights Reserved
   5:main.c        ****  * UNPUBLISHED, LICENSED SOFTWARE.
   6:main.c        ****  *
   7:main.c        ****  * CONFIDENTIAL AND PROPRIETARY INFORMATION
   8:main.c        ****  * WHICH IS THE PROPERTY OF J2DW.
   9:main.c        ****  *
  10:main.c        ****  * File: main.c
  11:main.c        ****  * Description: SHAS Area Controller Main Firmware Template
  12:main.c        ****  * Author(s): Jamie Doan, John Mo, Dallas Crus, William Vuong
  13:main.c        ****  * Revision Date: 2018-11-04
  14:main.c        ****  * ========================================
  15:main.c        **** */
  16:main.c        **** #include "project.h"   //Cypress Project Headers
  17:main.c        **** #include "stdlib.h"    //Standard C Library
  18:main.c        **** #include "stdio.h"     //Standard C I/O Library
  19:main.c        **** #include "stepctrl.h"  //Stepper Motor Control Functions
  20:main.c        **** #include "devstruct.h" //Peripheral Structure Initializers
  21:main.c        **** #include "devdef.h"    //Device Definitions
  22:main.c        **** 
  23:main.c        **** 
  24:main.c        **** //Global Variables & Struct Declarations
  25:main.c        **** // Vars
  26:main.c        **** char commandBytes[16] = "";
  27:main.c        **** 
  28:main.c        **** uint8 k,getDir = 0,curCount = 0,readyStatus = 0,wmode = 0;
  29:main.c        **** int8 curAct = -1;
  30:main.c        **** uint16 counterVal = 0;
ARM GAS  C:\Users\Kotori\AppData\Local\Temp\cccAZwYP.s 			page 2


  31:main.c        **** 
  32:main.c        **** //Structs -> From devstructs.h
  33:main.c        **** struct areacontroller mainAreacontroller;       //Initialize Area Controller ID Struct
  34:main.c        **** struct actuators mainActuators[NUM_OF_ACTUATORS]; //Initialize Actuator Data Structs
  35:main.c        **** struct sensors mainSensors[NUM_OF_SENSORS];
  36:main.c        **** 
  37:main.c        **** /* Function Prototypes */
  38:main.c        **** void Area_Controller_Init( void );
  39:main.c        **** void Check_Sens ( int id );
  40:main.c        **** 
  41:main.c        **** /* UART Interrupt Service Routine */
  42:main.c        **** CY_ISR(Rx_ISR_Call) {
  28              		.loc 1 42 0
  29              		.cfi_startproc
  30              		@ args = 0, pretend = 0, frame = 0
  31              		@ frame_needed = 0, uses_anonymous_args = 0
  32 0000 10B5     		push	{r4, lr}
  33              		.cfi_def_cfa_offset 8
  34              		.cfi_offset 4, -8
  35              		.cfi_offset 14, -4
  43:main.c        ****     char curChar = UART_GetChar();
  36              		.loc 1 43 0
  37 0002 FFF7FEFF 		bl	UART_GetChar
  38              	.LVL0:
  44:main.c        ****     if (curChar == '!') {
  39              		.loc 1 44 0
  40 0006 2128     		cmp	r0, #33
  41 0008 05D1     		bne	.L2
  45:main.c        ****         //UART_PutChar(curChar);
  46:main.c        ****         wmode = 0;
  42              		.loc 1 46 0
  43 000a 434B     		ldr	r3, .L18
  44 000c 0022     		movs	r2, #0
  45 000e 1A70     		strb	r2, [r3]
  47:main.c        ****         readyStatus = 1;
  46              		.loc 1 47 0
  47 0010 0122     		movs	r2, #1
  48 0012 5A70     		strb	r2, [r3, #1]
  49 0014 10BD     		pop	{r4, pc}
  50              	.L2:
  48:main.c        ****         //UART_PutString( commandBytes );
  49:main.c        ****         //UART_PutString( "\r\n" );
  50:main.c        ****     } else {
  51:main.c        ****         if (curChar == 'W'){
  51              		.loc 1 51 0
  52 0016 5728     		cmp	r0, #87
  53 0018 02D1     		bne	.L4
  52:main.c        ****             wmode = 1;
  54              		.loc 1 52 0
  55 001a 0122     		movs	r2, #1
  56 001c 3E4B     		ldr	r3, .L18
  57 001e 1A70     		strb	r2, [r3]
  58              	.L4:
  53:main.c        ****         } 
  54:main.c        ****         if (wmode == 1) {
  59              		.loc 1 54 0
  60 0020 3D4B     		ldr	r3, .L18
ARM GAS  C:\Users\Kotori\AppData\Local\Temp\cccAZwYP.s 			page 3


  61 0022 1B78     		ldrb	r3, [r3]	@ zero_extendqisi2
  62 0024 012B     		cmp	r3, #1
  63 0026 6AD1     		bne	.L5
  55:main.c        ****             if (curChar == ',') {
  64              		.loc 1 55 0
  65 0028 2C28     		cmp	r0, #44
  66 002a 23D1     		bne	.L6
  56:main.c        ****                 mainActuators[curAct].val = atoi(commandBytes);
  67              		.loc 1 56 0
  68 002c 3B4B     		ldr	r3, .L18+4
  69 002e 93F90040 		ldrsb	r4, [r3]
  70 0032 3B48     		ldr	r0, .L18+8
  71              	.LVL1:
  72 0034 FFF7FEFF 		bl	atoi
  73              	.LVL2:
  74 0038 04EB4404 		add	r4, r4, r4, lsl #1
  75 003c 6300     		lsls	r3, r4, #1
  76 003e 394A     		ldr	r2, .L18+12
  77 0040 1344     		add	r3, r3, r2
  78 0042 5880     		strh	r0, [r3, #2]	@ movhi
  57:main.c        ****                 for (k = 0; k < curCount;k++) {
  79              		.loc 1 57 0
  80 0044 0022     		movs	r2, #0
  81 0046 384B     		ldr	r3, .L18+16
  82 0048 1A70     		strb	r2, [r3]
  83 004a 06E0     		b	.L7
  84              	.L8:
  58:main.c        ****                     commandBytes[k] = 0x00;
  85              		.loc 1 58 0 discriminator 3
  86 004c 324A     		ldr	r2, .L18
  87 004e 1A44     		add	r2, r2, r3
  88 0050 0021     		movs	r1, #0
  89 0052 1171     		strb	r1, [r2, #4]
  57:main.c        ****                 for (k = 0; k < curCount;k++) {
  90              		.loc 1 57 0 discriminator 3
  91 0054 0133     		adds	r3, r3, #1
  92 0056 344A     		ldr	r2, .L18+16
  93 0058 1370     		strb	r3, [r2]
  94              	.L7:
  57:main.c        ****                 for (k = 0; k < curCount;k++) {
  95              		.loc 1 57 0 is_stmt 0 discriminator 1
  96 005a 334B     		ldr	r3, .L18+16
  97 005c 1B78     		ldrb	r3, [r3]	@ zero_extendqisi2
  98 005e 2E4A     		ldr	r2, .L18
  99 0060 127D     		ldrb	r2, [r2, #20]	@ zero_extendqisi2
 100 0062 9342     		cmp	r3, r2
 101 0064 F2D3     		bcc	.L8
  59:main.c        ****                 }
  60:main.c        ****                 curCount = 0;
 102              		.loc 1 60 0 is_stmt 1
 103 0066 0022     		movs	r2, #0
 104 0068 2B4B     		ldr	r3, .L18
 105 006a 1A75     		strb	r2, [r3, #20]
  61:main.c        ****                 curAct = -1;
 106              		.loc 1 61 0
 107 006c FF22     		movs	r2, #255
 108 006e 2B4B     		ldr	r3, .L18+4
ARM GAS  C:\Users\Kotori\AppData\Local\Temp\cccAZwYP.s 			page 4


 109 0070 1A70     		strb	r2, [r3]
 110 0072 10BD     		pop	{r4, pc}
 111              	.LVL3:
 112              	.L6:
  62:main.c        ****             } else {
  63:main.c        ****                 if (curAct == -1) {
 113              		.loc 1 63 0
 114 0074 294B     		ldr	r3, .L18+4
 115 0076 93F90030 		ldrsb	r3, [r3]
 116 007a B3F1FF3F 		cmp	r3, #-1
 117 007e 1ED1     		bne	.L9
  64:main.c        ****                     for (k = 0; k < NUM_OF_ACTUATORS; k++) {
 118              		.loc 1 64 0
 119 0080 0022     		movs	r2, #0
 120 0082 294B     		ldr	r3, .L18+16
 121 0084 1A70     		strb	r2, [r3]
 122 0086 15E0     		b	.L10
 123              	.L12:
  65:main.c        ****                         if (mainActuators[k].id == curChar) {
 124              		.loc 1 65 0
 125 0088 03EB4301 		add	r1, r3, r3, lsl #1
 126 008c 4A00     		lsls	r2, r1, #1
 127 008e 2549     		ldr	r1, .L18+12
 128 0090 8A5C     		ldrb	r2, [r1, r2]	@ zero_extendqisi2
 129 0092 9042     		cmp	r0, r2
 130 0094 0BD1     		bne	.L11
  66:main.c        ****                             curAct = k;
 131              		.loc 1 66 0
 132 0096 214A     		ldr	r2, .L18+4
 133 0098 1370     		strb	r3, [r2]
  67:main.c        ****                             if (mainActuators[k].type == 0x00) {
 134              		.loc 1 67 0
 135 009a 03EB4301 		add	r1, r3, r3, lsl #1
 136 009e 4A00     		lsls	r2, r1, #1
 137 00a0 2049     		ldr	r1, .L18+12
 138 00a2 0A44     		add	r2, r2, r1
 139 00a4 5278     		ldrb	r2, [r2, #1]	@ zero_extendqisi2
 140 00a6 12B9     		cbnz	r2, .L11
  68:main.c        ****                                 getDir = 1;
 141              		.loc 1 68 0
 142 00a8 0121     		movs	r1, #1
 143 00aa 1B4A     		ldr	r2, .L18
 144 00ac 5175     		strb	r1, [r2, #21]
 145              	.L11:
  64:main.c        ****                         if (mainActuators[k].id == curChar) {
 146              		.loc 1 64 0 discriminator 2
 147 00ae 0133     		adds	r3, r3, #1
 148 00b0 1D4A     		ldr	r2, .L18+16
 149 00b2 1370     		strb	r3, [r2]
 150              	.L10:
  64:main.c        ****                         if (mainActuators[k].id == curChar) {
 151              		.loc 1 64 0 is_stmt 0 discriminator 1
 152 00b4 1C4B     		ldr	r3, .L18+16
 153 00b6 1B78     		ldrb	r3, [r3]	@ zero_extendqisi2
 154 00b8 012B     		cmp	r3, #1
 155 00ba E5D9     		bls	.L12
 156 00bc 10BD     		pop	{r4, pc}
ARM GAS  C:\Users\Kotori\AppData\Local\Temp\cccAZwYP.s 			page 5


 157              	.L9:
  69:main.c        ****                             }
  70:main.c        ****                         }
  71:main.c        ****                     }
  72:main.c        ****                 } else {
  73:main.c        ****                     if (getDir == 1) {
 158              		.loc 1 73 0 is_stmt 1
 159 00be 164A     		ldr	r2, .L18
 160 00c0 527D     		ldrb	r2, [r2, #21]	@ zero_extendqisi2
 161 00c2 012A     		cmp	r2, #1
 162 00c4 14D1     		bne	.L13
  74:main.c        ****                         if (curChar == 'A') {
 163              		.loc 1 74 0
 164 00c6 4128     		cmp	r0, #65
 165 00c8 07D1     		bne	.L14
  75:main.c        ****                             mainActuators[curAct].dir = 0x00;
 166              		.loc 1 75 0
 167 00ca 03EB4303 		add	r3, r3, r3, lsl #1
 168 00ce 5A00     		lsls	r2, r3, #1
 169 00d0 144B     		ldr	r3, .L18+12
 170 00d2 1A44     		add	r2, r2, r3
 171 00d4 0023     		movs	r3, #0
 172 00d6 1371     		strb	r3, [r2, #4]
 173 00d8 06E0     		b	.L15
 174              	.L14:
  76:main.c        ****                         } else {
  77:main.c        ****                             mainActuators[curAct].dir = 0x01;
 175              		.loc 1 77 0
 176 00da 03EB4303 		add	r3, r3, r3, lsl #1
 177 00de 5A00     		lsls	r2, r3, #1
 178 00e0 104B     		ldr	r3, .L18+12
 179 00e2 1A44     		add	r2, r2, r3
 180 00e4 0123     		movs	r3, #1
 181 00e6 1371     		strb	r3, [r2, #4]
 182              	.L15:
  78:main.c        ****                         }
  79:main.c        ****                         getDir = 0; 
 183              		.loc 1 79 0
 184 00e8 0022     		movs	r2, #0
 185 00ea 0B4B     		ldr	r3, .L18
 186 00ec 5A75     		strb	r2, [r3, #21]
 187 00ee 10BD     		pop	{r4, pc}
 188              	.L13:
  80:main.c        ****                     } else {
  81:main.c        ****                         commandBytes[curCount] = curChar;
 189              		.loc 1 81 0
 190 00f0 094A     		ldr	r2, .L18
 191 00f2 137D     		ldrb	r3, [r2, #20]	@ zero_extendqisi2
 192 00f4 D118     		adds	r1, r2, r3
 193 00f6 0871     		strb	r0, [r1, #4]
  82:main.c        ****                         curCount++; 
 194              		.loc 1 82 0
 195 00f8 0133     		adds	r3, r3, #1
 196 00fa 1375     		strb	r3, [r2, #20]
 197 00fc 10BD     		pop	{r4, pc}
 198              	.L5:
  83:main.c        ****                     }
ARM GAS  C:\Users\Kotori\AppData\Local\Temp\cccAZwYP.s 			page 6


  84:main.c        ****                 }
  85:main.c        ****             }
  86:main.c        ****         } else {
  87:main.c        ****             if (curChar == 'R') {
 199              		.loc 1 87 0
 200 00fe 5228     		cmp	r0, #82
 201 0100 03D1     		bne	.L16
  88:main.c        ****                 readyStatus = 2;   
 202              		.loc 1 88 0
 203 0102 0222     		movs	r2, #2
 204 0104 044B     		ldr	r3, .L18
 205 0106 5A70     		strb	r2, [r3, #1]
 206 0108 10BD     		pop	{r4, pc}
 207              	.L16:
  89:main.c        ****             } else if (curChar == 'A') {
 208              		.loc 1 89 0
 209 010a 4128     		cmp	r0, #65
 210 010c 02D1     		bne	.L1
  90:main.c        ****                 readyStatus = 3;
 211              		.loc 1 90 0
 212 010e 0322     		movs	r2, #3
 213 0110 014B     		ldr	r3, .L18
 214 0112 5A70     		strb	r2, [r3, #1]
 215              	.L1:
 216 0114 10BD     		pop	{r4, pc}
 217              	.L19:
 218 0116 00BF     		.align	2
 219              	.L18:
 220 0118 00000000 		.word	.LANCHOR0
 221 011c 00000000 		.word	.LANCHOR1
 222 0120 04000000 		.word	.LANCHOR0+4
 223 0124 00000000 		.word	mainActuators
 224 0128 00000000 		.word	k
 225              		.cfi_endproc
 226              	.LFE64:
 227              		.size	Rx_ISR_Call, .-Rx_ISR_Call
 228              		.section	.text.Area_Controller_Init,"ax",%progbits
 229              		.align	2
 230              		.global	Area_Controller_Init
 231              		.thumb
 232              		.thumb_func
 233              		.type	Area_Controller_Init, %function
 234              	Area_Controller_Init:
 235              	.LFB66:
  91:main.c        ****             }
  92:main.c        ****         }
  93:main.c        ****     }
  94:main.c        **** }
  95:main.c        **** 
  96:main.c        **** int main(void)
  97:main.c        **** {
  98:main.c        ****     /* Interrupt Inits */
  99:main.c        ****     CyGlobalIntEnable; /* Enable global interrupts. */
 100:main.c        ****     RxISR_StartEx(Rx_ISR_Call); /* Start UART ISR */
 101:main.c        ****     
 102:main.c        ****     /* Device Init & Vars*/
 103:main.c        ****     Area_Controller_Init();
ARM GAS  C:\Users\Kotori\AppData\Local\Temp\cccAZwYP.s 			page 7


 104:main.c        ****     ADC_Start();
 105:main.c        ****     UART_Start(); //Start UART
 106:main.c        ****     HCSR04_Start();
 107:main.c        ****     
 108:main.c        ****     
 109:main.c        ****     UART_PutString( "Starting: " );
 110:main.c        ****     UART_PutString( mainAreacontroller.description );
 111:main.c        ****     UART_PutCRLF(0x00);
 112:main.c        ****     RGB_OUT_Write(mainActuators[1].val);
 113:main.c        ****     
 114:main.c        ****     uint16 i= 0;
 115:main.c        ****     
 116:main.c        ****     /* Main Program Loop */
 117:main.c        ****     for(;;)
 118:main.c        ****     {
 119:main.c        ****         Check_Sens(0);
 120:main.c        ****         Check_Sens(1);
 121:main.c        ****         Check_Sens(2);
 122:main.c        ****         Check_Sens(3);
 123:main.c        ****         if (readyStatus == 1) {
 124:main.c        ****                
 125:main.c        ****             // Change LED States
 126:main.c        ****             RGB_OUT_Write(mainActuators[1].val);
 127:main.c        ****             
 128:main.c        ****             // Change Stepper State
 129:main.c        ****             STEP_EN(1);
 130:main.c        ****             STEP_DIR(mainActuators[0].dir);
 131:main.c        ****             for(i = 1; i<=mainActuators[0].val; i++) {
 132:main.c        ****                 STEP_RUN();
 133:main.c        ****                 CyDelay(15);
 134:main.c        ****             }
 135:main.c        ****             mainActuators[0].val = 0;
 136:main.c        ****             STEP_EN(0);
 137:main.c        ****             readyStatus = 0;
 138:main.c        ****         } else if (readyStatus == 2) {
 139:main.c        ****             char sensorOutput[100];
 140:main.c        ****             UART_PutChar('[');
 141:main.c        ****             for (int i = 0; i < NUM_OF_SENSORS; i++) {
 142:main.c        ****                 snprintf(sensorOutput,100,"{ \"SensId\" : %d, \"SensType\" : %d, \"SensVal\" : %d }
 143:main.c        ****                     mainSensors[i].id,
 144:main.c        ****                     mainSensors[i].type,
 145:main.c        ****                     mainSensors[i].val
 146:main.c        ****                 );
 147:main.c        ****                 UART_PutString( sensorOutput );
 148:main.c        ****                 if ( i != 3 ) {
 149:main.c        ****                     UART_PutChar(',');
 150:main.c        ****                 }
 151:main.c        ****                 UART_PutCRLF(0x00);
 152:main.c        ****             }
 153:main.c        ****             UART_PutChar(']');
 154:main.c        ****             readyStatus = 0;
 155:main.c        ****         } else if (readyStatus == 3) {
 156:main.c        ****             char ACOutput[100];
 157:main.c        ****             snprintf(ACOutput, 100, "{ \"ACId\" : %d, \"ACNumActs\" : %d, \"ACNumSens\" : %d, \"ACD
 158:main.c        ****                 mainAreacontroller.id,
 159:main.c        ****                 mainAreacontroller.numActs,
 160:main.c        ****                 mainAreacontroller.numSens,
ARM GAS  C:\Users\Kotori\AppData\Local\Temp\cccAZwYP.s 			page 8


 161:main.c        ****                 mainAreacontroller.description
 162:main.c        ****             );
 163:main.c        ****             UART_PutString( ACOutput );
 164:main.c        ****             UART_PutCRLF(0x00);
 165:main.c        ****             readyStatus = 0;
 166:main.c        ****         }
 167:main.c        ****         CyDelay(1);
 168:main.c        ****     }
 169:main.c        **** }
 170:main.c        **** 
 171:main.c        **** void Area_Controller_Init ( void ) {
 236              		.loc 1 171 0
 237              		.cfi_startproc
 238              		@ args = 0, pretend = 0, frame = 0
 239              		@ frame_needed = 0, uses_anonymous_args = 0
 240              		@ link register save eliminated.
 241 0000 10B4     		push	{r4}
 242              		.cfi_def_cfa_offset 4
 243              		.cfi_offset 4, -4
 172:main.c        ****     //AreaController ID Init
 173:main.c        ****     mainAreacontroller.id = DEV_ID;
 244              		.loc 1 173 0
 245 0002 134B     		ldr	r3, .L22
 246 0004 AA22     		movs	r2, #170
 247 0006 1A70     		strb	r2, [r3]
 174:main.c        ****     mainAreacontroller.numActs = NUM_OF_ACTUATORS;
 248              		.loc 1 174 0
 249 0008 0221     		movs	r1, #2
 250 000a 5970     		strb	r1, [r3, #1]
 175:main.c        ****     mainAreacontroller.numSens = NUM_OF_SENSORS;
 251              		.loc 1 175 0
 252 000c 0422     		movs	r2, #4
 253 000e 9A70     		strb	r2, [r3, #2]
 176:main.c        ****     mainAreacontroller.description = DEV_DESC;
 254              		.loc 1 176 0
 255 0010 104A     		ldr	r2, .L22+4
 256 0012 5A60     		str	r2, [r3, #4]
 177:main.c        ****     
 178:main.c        ****     //Sensor Init Structs
 179:main.c        ****     //Light Sensor Init
 180:main.c        ****     mainSensors[0].id = 'A';
 257              		.loc 1 180 0
 258 0014 104B     		ldr	r3, .L22+8
 259 0016 4124     		movs	r4, #65
 260 0018 1C70     		strb	r4, [r3]
 181:main.c        ****     mainSensors[0].type = 0x00;
 261              		.loc 1 181 0
 262 001a 0022     		movs	r2, #0
 263 001c 5A70     		strb	r2, [r3, #1]
 182:main.c        ****     mainSensors[0].val = 0x00;
 264              		.loc 1 182 0
 265 001e 5A80     		strh	r2, [r3, #2]	@ movhi
 183:main.c        ****     
 184:main.c        ****     //SHARP Distance Sensor Init
 185:main.c        ****     mainSensors[1].id = 'B';
 266              		.loc 1 185 0
 267 0020 4220     		movs	r0, #66
ARM GAS  C:\Users\Kotori\AppData\Local\Temp\cccAZwYP.s 			page 9


 268 0022 1871     		strb	r0, [r3, #4]
 186:main.c        ****     mainSensors[1].type = 0x02;
 269              		.loc 1 186 0
 270 0024 5971     		strb	r1, [r3, #5]
 187:main.c        ****     mainSensors[1].val = 0x00;
 271              		.loc 1 187 0
 272 0026 DA80     		strh	r2, [r3, #6]	@ movhi
 188:main.c        ****     
 189:main.c        ****     //TMP36 Sensor Init
 190:main.c        ****     mainSensors[2].id = 'C';
 273              		.loc 1 190 0
 274 0028 4321     		movs	r1, #67
 275 002a 1972     		strb	r1, [r3, #8]
 191:main.c        ****     mainSensors[2].type = 0x03;
 276              		.loc 1 191 0
 277 002c 0321     		movs	r1, #3
 278 002e 5972     		strb	r1, [r3, #9]
 192:main.c        ****     mainSensors[2].val = 0x00;
 279              		.loc 1 192 0
 280 0030 5A81     		strh	r2, [r3, #10]	@ movhi
 193:main.c        ****     
 194:main.c        ****     //ULTRASON Sensor Init
 195:main.c        ****     mainSensors[3].id = 'D';
 281              		.loc 1 195 0
 282 0032 4421     		movs	r1, #68
 283 0034 1973     		strb	r1, [r3, #12]
 196:main.c        ****     mainSensors[3].type = 0x01;
 284              		.loc 1 196 0
 285 0036 0121     		movs	r1, #1
 286 0038 5973     		strb	r1, [r3, #13]
 197:main.c        ****     mainSensors[3].val = 0x00;
 287              		.loc 1 197 0
 288 003a DA81     		strh	r2, [r3, #14]	@ movhi
 198:main.c        ****     
 199:main.c        ****     //Actuator Init Structs
 200:main.c        ****     //Stepper Init
 201:main.c        ****     mainActuators[0].id = 'A';
 289              		.loc 1 201 0
 290 003c 074B     		ldr	r3, .L22+12
 291 003e 1C70     		strb	r4, [r3]
 202:main.c        ****     mainActuators[0].type = 0x00;
 292              		.loc 1 202 0
 293 0040 5A70     		strb	r2, [r3, #1]
 203:main.c        ****     mainActuators[0].dir = 0x00;
 294              		.loc 1 203 0
 295 0042 1A71     		strb	r2, [r3, #4]
 204:main.c        ****     mainActuators[0].val = 0x00;
 296              		.loc 1 204 0
 297 0044 5A80     		strh	r2, [r3, #2]	@ movhi
 205:main.c        ****     
 206:main.c        ****     //RGBLED Init
 207:main.c        ****     mainActuators[1].id = 'B';
 298              		.loc 1 207 0
 299 0046 9871     		strb	r0, [r3, #6]
 208:main.c        ****     mainActuators[1].type = 0x01;
 300              		.loc 1 208 0
 301 0048 D971     		strb	r1, [r3, #7]
ARM GAS  C:\Users\Kotori\AppData\Local\Temp\cccAZwYP.s 			page 10


 209:main.c        ****     mainActuators[1].val = 0x00;   
 302              		.loc 1 209 0
 303 004a 1A81     		strh	r2, [r3, #8]	@ movhi
 210:main.c        **** }
 304              		.loc 1 210 0
 305 004c 10BC     		pop	{r4}
 306              		.cfi_restore 4
 307              		.cfi_def_cfa_offset 0
 308 004e 7047     		bx	lr
 309              	.L23:
 310              		.align	2
 311              	.L22:
 312 0050 00000000 		.word	mainAreacontroller
 313 0054 00000000 		.word	.LC0
 314 0058 00000000 		.word	mainSensors
 315 005c 00000000 		.word	mainActuators
 316              		.cfi_endproc
 317              	.LFE66:
 318              		.size	Area_Controller_Init, .-Area_Controller_Init
 319              		.section	.text.Check_Sens,"ax",%progbits
 320              		.align	2
 321              		.global	Check_Sens
 322              		.thumb
 323              		.thumb_func
 324              		.type	Check_Sens, %function
 325              	Check_Sens:
 326              	.LFB67:
 211:main.c        **** 
 212:main.c        **** void Check_Sens( int id ) {
 327              		.loc 1 212 0
 328              		.cfi_startproc
 329              		@ args = 0, pretend = 0, frame = 0
 330              		@ frame_needed = 0, uses_anonymous_args = 0
 331              	.LVL4:
 332 0000 10B5     		push	{r4, lr}
 333              		.cfi_def_cfa_offset 8
 334              		.cfi_offset 4, -8
 335              		.cfi_offset 14, -4
 336 0002 0446     		mov	r4, r0
 213:main.c        ****     if (mainSensors[id].type == 0x01) {
 337              		.loc 1 213 0
 338 0004 174B     		ldr	r3, .L29
 339 0006 03EB8003 		add	r3, r3, r0, lsl #2
 340 000a 5B78     		ldrb	r3, [r3, #1]	@ zero_extendqisi2
 341 000c 012B     		cmp	r3, #1
 342 000e 17D1     		bne	.L25
 214:main.c        ****             TRIG_Write(1);
 343              		.loc 1 214 0
 344 0010 0120     		movs	r0, #1
 345              	.LVL5:
 346 0012 FFF7FEFF 		bl	TRIG_Write
 347              	.LVL6:
 215:main.c        ****             CyDelay(10u);
 348              		.loc 1 215 0
 349 0016 0A20     		movs	r0, #10
 350 0018 FFF7FEFF 		bl	CyDelay
 351              	.LVL7:
ARM GAS  C:\Users\Kotori\AppData\Local\Temp\cccAZwYP.s 			page 11


 216:main.c        ****             TRIG_Write(0);
 352              		.loc 1 216 0
 353 001c 0020     		movs	r0, #0
 354 001e FFF7FEFF 		bl	TRIG_Write
 355              	.LVL8:
 217:main.c        ****             CyDelay(100);
 356              		.loc 1 217 0
 357 0022 6420     		movs	r0, #100
 358 0024 FFF7FEFF 		bl	CyDelay
 359              	.LVL9:
 360              	.L26:
 218:main.c        ****             while (ECHO_PIN_Read()){
 361              		.loc 1 218 0 discriminator 1
 362 0028 FFF7FEFF 		bl	ECHO_PIN_Read
 363              	.LVL10:
 364 002c 0028     		cmp	r0, #0
 365 002e FBD1     		bne	.L26
 219:main.c        ****                 //UART_PutString("in ECHO 1");
 220:main.c        ****                 //CyDelay(500);
 221:main.c        ****             }
 222:main.c        ****              mainSensors[id].val = 65536 - HCSR04_ReadCounter();
 366              		.loc 1 222 0
 367 0030 FFF7FEFF 		bl	HCSR04_ReadCounter
 368              	.LVL11:
 369 0034 0B4B     		ldr	r3, .L29
 370 0036 03EB8404 		add	r4, r3, r4, lsl #2
 371              	.LVL12:
 372 003a 4042     		negs	r0, r0
 373 003c 6080     		strh	r0, [r4, #2]	@ movhi
 374 003e 10BD     		pop	{r4, pc}
 375              	.LVL13:
 376              	.L25:
 223:main.c        ****     } else {
 224:main.c        ****         A_SENS_Select(id);
 377              		.loc 1 224 0
 378 0040 C0B2     		uxtb	r0, r0
 379              	.LVL14:
 380 0042 FFF7FEFF 		bl	A_SENS_Select
 381              	.LVL15:
 225:main.c        ****         ADC_StartConvert();
 382              		.loc 1 225 0
 383 0046 FFF7FEFF 		bl	ADC_StartConvert
 384              	.LVL16:
 226:main.c        ****         CyDelay(10);
 385              		.loc 1 226 0
 386 004a 0A20     		movs	r0, #10
 387 004c FFF7FEFF 		bl	CyDelay
 388              	.LVL17:
 227:main.c        ****         mainSensors[id].val = ADC_GetResult16();
 389              		.loc 1 227 0
 390 0050 FFF7FEFF 		bl	ADC_GetResult16
 391              	.LVL18:
 392 0054 034B     		ldr	r3, .L29
 393 0056 03EB8404 		add	r4, r3, r4, lsl #2
 394              	.LVL19:
 395 005a 6080     		strh	r0, [r4, #2]	@ movhi
 228:main.c        ****         ADC_StopConvert();
ARM GAS  C:\Users\Kotori\AppData\Local\Temp\cccAZwYP.s 			page 12


 396              		.loc 1 228 0
 397 005c FFF7FEFF 		bl	ADC_StopConvert
 398              	.LVL20:
 399 0060 10BD     		pop	{r4, pc}
 400              	.L30:
 401 0062 00BF     		.align	2
 402              	.L29:
 403 0064 00000000 		.word	mainSensors
 404              		.cfi_endproc
 405              	.LFE67:
 406              		.size	Check_Sens, .-Check_Sens
 407              		.section	.text.main,"ax",%progbits
 408              		.align	2
 409              		.global	main
 410              		.thumb
 411              		.thumb_func
 412              		.type	main, %function
 413              	main:
 414              	.LFB65:
  97:main.c        ****     /* Interrupt Inits */
 415              		.loc 1 97 0
 416              		.cfi_startproc
 417              		@ args = 0, pretend = 0, frame = 104
 418              		@ frame_needed = 0, uses_anonymous_args = 0
 419 0000 10B5     		push	{r4, lr}
 420              		.cfi_def_cfa_offset 8
 421              		.cfi_offset 4, -8
 422              		.cfi_offset 14, -4
 423 0002 9EB0     		sub	sp, sp, #120
 424              		.cfi_def_cfa_offset 128
  99:main.c        ****     RxISR_StartEx(Rx_ISR_Call); /* Start UART ISR */
 425              		.loc 1 99 0
 426              		.syntax unified
 427              	@ 99 "main.c" 1
 428 0004 62B6     		CPSIE   i
 429              	@ 0 "" 2
 100:main.c        ****     
 430              		.loc 1 100 0
 431              		.thumb
 432              		.syntax unified
 433 0006 4748     		ldr	r0, .L42
 434 0008 FFF7FEFF 		bl	RxISR_StartEx
 435              	.LVL21:
 103:main.c        ****     ADC_Start();
 436              		.loc 1 103 0
 437 000c FFF7FEFF 		bl	Area_Controller_Init
 438              	.LVL22:
 104:main.c        ****     UART_Start(); //Start UART
 439              		.loc 1 104 0
 440 0010 FFF7FEFF 		bl	ADC_Start
 441              	.LVL23:
 105:main.c        ****     HCSR04_Start();
 442              		.loc 1 105 0
 443 0014 FFF7FEFF 		bl	UART_Start
 444              	.LVL24:
 106:main.c        ****     
 445              		.loc 1 106 0
ARM GAS  C:\Users\Kotori\AppData\Local\Temp\cccAZwYP.s 			page 13


 446 0018 FFF7FEFF 		bl	HCSR04_Start
 447              	.LVL25:
 109:main.c        ****     UART_PutString( mainAreacontroller.description );
 448              		.loc 1 109 0
 449 001c 4248     		ldr	r0, .L42+4
 450 001e FFF7FEFF 		bl	UART_PutString
 451              	.LVL26:
 110:main.c        ****     UART_PutCRLF(0x00);
 452              		.loc 1 110 0
 453 0022 424B     		ldr	r3, .L42+8
 454 0024 5868     		ldr	r0, [r3, #4]
 455 0026 FFF7FEFF 		bl	UART_PutString
 456              	.LVL27:
 111:main.c        ****     RGB_OUT_Write(mainActuators[1].val);
 457              		.loc 1 111 0
 458 002a 0020     		movs	r0, #0
 459 002c FFF7FEFF 		bl	UART_PutCRLF
 460              	.LVL28:
 112:main.c        ****     
 461              		.loc 1 112 0
 462 0030 3F4B     		ldr	r3, .L42+12
 463 0032 187A     		ldrb	r0, [r3, #8]	@ zero_extendqisi2
 464 0034 FFF7FEFF 		bl	RGB_OUT_Write
 465              	.LVL29:
 466              	.L40:
 119:main.c        ****         Check_Sens(1);
 467              		.loc 1 119 0
 468 0038 0020     		movs	r0, #0
 469 003a FFF7FEFF 		bl	Check_Sens
 470              	.LVL30:
 120:main.c        ****         Check_Sens(2);
 471              		.loc 1 120 0
 472 003e 0120     		movs	r0, #1
 473 0040 FFF7FEFF 		bl	Check_Sens
 474              	.LVL31:
 121:main.c        ****         Check_Sens(3);
 475              		.loc 1 121 0
 476 0044 0220     		movs	r0, #2
 477 0046 FFF7FEFF 		bl	Check_Sens
 478              	.LVL32:
 122:main.c        ****         if (readyStatus == 1) {
 479              		.loc 1 122 0
 480 004a 0320     		movs	r0, #3
 481 004c FFF7FEFF 		bl	Check_Sens
 482              	.LVL33:
 123:main.c        ****                
 483              		.loc 1 123 0
 484 0050 384B     		ldr	r3, .L42+16
 485 0052 5B78     		ldrb	r3, [r3, #1]	@ zero_extendqisi2
 486 0054 012B     		cmp	r3, #1
 487 0056 1FD1     		bne	.L32
 126:main.c        ****             
 488              		.loc 1 126 0
 489 0058 354C     		ldr	r4, .L42+12
 490 005a 207A     		ldrb	r0, [r4, #8]	@ zero_extendqisi2
 491 005c FFF7FEFF 		bl	RGB_OUT_Write
 492              	.LVL34:
ARM GAS  C:\Users\Kotori\AppData\Local\Temp\cccAZwYP.s 			page 14


 129:main.c        ****             STEP_DIR(mainActuators[0].dir);
 493              		.loc 1 129 0
 494 0060 0120     		movs	r0, #1
 495 0062 FFF7FEFF 		bl	STEP_EN
 496              	.LVL35:
 130:main.c        ****             for(i = 1; i<=mainActuators[0].val; i++) {
 497              		.loc 1 130 0
 498 0066 2079     		ldrb	r0, [r4, #4]	@ zero_extendqisi2
 499 0068 FFF7FEFF 		bl	STEP_DIR
 500              	.LVL36:
 131:main.c        ****                 STEP_RUN();
 501              		.loc 1 131 0
 502 006c 0124     		movs	r4, #1
 503 006e 06E0     		b	.L33
 504              	.LVL37:
 505              	.L34:
 132:main.c        ****                 CyDelay(15);
 506              		.loc 1 132 0 discriminator 3
 507 0070 FFF7FEFF 		bl	STEP_RUN
 508              	.LVL38:
 133:main.c        ****             }
 509              		.loc 1 133 0 discriminator 3
 510 0074 0F20     		movs	r0, #15
 511 0076 FFF7FEFF 		bl	CyDelay
 512              	.LVL39:
 131:main.c        ****                 STEP_RUN();
 513              		.loc 1 131 0 discriminator 3
 514 007a 0134     		adds	r4, r4, #1
 515              	.LVL40:
 516 007c A4B2     		uxth	r4, r4
 517              	.LVL41:
 518              	.L33:
 131:main.c        ****                 STEP_RUN();
 519              		.loc 1 131 0 is_stmt 0 discriminator 1
 520 007e 2C4B     		ldr	r3, .L42+12
 521 0080 5B88     		ldrh	r3, [r3, #2]
 522 0082 9C42     		cmp	r4, r3
 523 0084 F4D9     		bls	.L34
 135:main.c        ****             STEP_EN(0);
 524              		.loc 1 135 0 is_stmt 1
 525 0086 0024     		movs	r4, #0
 526              	.LVL42:
 527 0088 294B     		ldr	r3, .L42+12
 528 008a 5C80     		strh	r4, [r3, #2]	@ movhi
 136:main.c        ****             readyStatus = 0;
 529              		.loc 1 136 0
 530 008c 2046     		mov	r0, r4
 531 008e FFF7FEFF 		bl	STEP_EN
 532              	.LVL43:
 137:main.c        ****         } else if (readyStatus == 2) {
 533              		.loc 1 137 0
 534 0092 284B     		ldr	r3, .L42+16
 535 0094 5C70     		strb	r4, [r3, #1]
 536 0096 41E0     		b	.L35
 537              	.L32:
 138:main.c        ****             char sensorOutput[100];
 538              		.loc 1 138 0
ARM GAS  C:\Users\Kotori\AppData\Local\Temp\cccAZwYP.s 			page 15


 539 0098 022B     		cmp	r3, #2
 540 009a 27D1     		bne	.L36
 541              	.LBB2:
 140:main.c        ****             for (int i = 0; i < NUM_OF_SENSORS; i++) {
 542              		.loc 1 140 0
 543 009c 5B20     		movs	r0, #91
 544 009e FFF7FEFF 		bl	UART_PutChar
 545              	.LVL44:
 546              	.LBB3:
 141:main.c        ****                 snprintf(sensorOutput,100,"{ \"SensId\" : %d, \"SensType\" : %d, \"SensVal\" : %d }
 547              		.loc 1 141 0
 548 00a2 0024     		movs	r4, #0
 549 00a4 19E0     		b	.L37
 550              	.LVL45:
 551              	.L39:
 143:main.c        ****                     mainSensors[i].type,
 552              		.loc 1 143 0
 553 00a6 244A     		ldr	r2, .L42+20
 554 00a8 12F82430 		ldrb	r3, [r2, r4, lsl #2]	@ zero_extendqisi2
 144:main.c        ****                     mainSensors[i].val
 555              		.loc 1 144 0
 556 00ac 02EB8402 		add	r2, r2, r4, lsl #2
 557 00b0 5178     		ldrb	r1, [r2, #1]	@ zero_extendqisi2
 145:main.c        ****                 );
 558              		.loc 1 145 0
 559 00b2 5288     		ldrh	r2, [r2, #2]
 142:main.c        ****                     mainSensors[i].id,
 560              		.loc 1 142 0
 561 00b4 0192     		str	r2, [sp, #4]
 562 00b6 0091     		str	r1, [sp]
 563 00b8 204A     		ldr	r2, .L42+24
 564 00ba 6421     		movs	r1, #100
 565 00bc 05A8     		add	r0, sp, #20
 566 00be FFF7FEFF 		bl	snprintf
 567              	.LVL46:
 147:main.c        ****                 if ( i != 3 ) {
 568              		.loc 1 147 0
 569 00c2 05A8     		add	r0, sp, #20
 570 00c4 FFF7FEFF 		bl	UART_PutString
 571              	.LVL47:
 148:main.c        ****                     UART_PutChar(',');
 572              		.loc 1 148 0
 573 00c8 032C     		cmp	r4, #3
 574 00ca 02D0     		beq	.L38
 149:main.c        ****                 }
 575              		.loc 1 149 0
 576 00cc 2C20     		movs	r0, #44
 577 00ce FFF7FEFF 		bl	UART_PutChar
 578              	.LVL48:
 579              	.L38:
 151:main.c        ****             }
 580              		.loc 1 151 0 discriminator 2
 581 00d2 0020     		movs	r0, #0
 582 00d4 FFF7FEFF 		bl	UART_PutCRLF
 583              	.LVL49:
 141:main.c        ****                 snprintf(sensorOutput,100,"{ \"SensId\" : %d, \"SensType\" : %d, \"SensVal\" : %d }
 584              		.loc 1 141 0 discriminator 2
ARM GAS  C:\Users\Kotori\AppData\Local\Temp\cccAZwYP.s 			page 16


 585 00d8 0134     		adds	r4, r4, #1
 586              	.LVL50:
 587              	.L37:
 141:main.c        ****                 snprintf(sensorOutput,100,"{ \"SensId\" : %d, \"SensType\" : %d, \"SensVal\" : %d }
 588              		.loc 1 141 0 is_stmt 0 discriminator 1
 589 00da 032C     		cmp	r4, #3
 590 00dc E3DD     		ble	.L39
 591              	.LBE3:
 153:main.c        ****             readyStatus = 0;
 592              		.loc 1 153 0 is_stmt 1
 593 00de 5D20     		movs	r0, #93
 594 00e0 FFF7FEFF 		bl	UART_PutChar
 595              	.LVL51:
 154:main.c        ****         } else if (readyStatus == 3) {
 596              		.loc 1 154 0
 597 00e4 0022     		movs	r2, #0
 598 00e6 134B     		ldr	r3, .L42+16
 599 00e8 5A70     		strb	r2, [r3, #1]
 600              	.LBE2:
 601 00ea 17E0     		b	.L35
 602              	.LVL52:
 603              	.L36:
 155:main.c        ****             char ACOutput[100];
 604              		.loc 1 155 0
 605 00ec 032B     		cmp	r3, #3
 606 00ee 15D1     		bne	.L35
 607              	.LBB4:
 158:main.c        ****                 mainAreacontroller.numActs,
 608              		.loc 1 158 0
 609 00f0 0E4A     		ldr	r2, .L42+8
 610 00f2 1378     		ldrb	r3, [r2]	@ zero_extendqisi2
 159:main.c        ****                 mainAreacontroller.numSens,
 611              		.loc 1 159 0
 612 00f4 5178     		ldrb	r1, [r2, #1]	@ zero_extendqisi2
 160:main.c        ****                 mainAreacontroller.description
 613              		.loc 1 160 0
 614 00f6 9078     		ldrb	r0, [r2, #2]	@ zero_extendqisi2
 157:main.c        ****                 mainAreacontroller.id,
 615              		.loc 1 157 0
 616 00f8 5268     		ldr	r2, [r2, #4]
 617 00fa 0292     		str	r2, [sp, #8]
 618 00fc 0190     		str	r0, [sp, #4]
 619 00fe 0091     		str	r1, [sp]
 620 0100 0F4A     		ldr	r2, .L42+28
 621 0102 6421     		movs	r1, #100
 622 0104 05A8     		add	r0, sp, #20
 623 0106 FFF7FEFF 		bl	snprintf
 624              	.LVL53:
 163:main.c        ****             UART_PutCRLF(0x00);
 625              		.loc 1 163 0
 626 010a 05A8     		add	r0, sp, #20
 627 010c FFF7FEFF 		bl	UART_PutString
 628              	.LVL54:
 164:main.c        ****             readyStatus = 0;
 629              		.loc 1 164 0
 630 0110 0020     		movs	r0, #0
 631 0112 FFF7FEFF 		bl	UART_PutCRLF
ARM GAS  C:\Users\Kotori\AppData\Local\Temp\cccAZwYP.s 			page 17


 632              	.LVL55:
 165:main.c        ****         }
 633              		.loc 1 165 0
 634 0116 0022     		movs	r2, #0
 635 0118 064B     		ldr	r3, .L42+16
 636 011a 5A70     		strb	r2, [r3, #1]
 637              	.L35:
 638              	.LBE4:
 167:main.c        ****     }
 639              		.loc 1 167 0
 640 011c 0120     		movs	r0, #1
 641 011e FFF7FEFF 		bl	CyDelay
 642              	.LVL56:
 168:main.c        **** }
 643              		.loc 1 168 0
 644 0122 89E7     		b	.L40
 645              	.L43:
 646              		.align	2
 647              	.L42:
 648 0124 00000000 		.word	Rx_ISR_Call
 649 0128 1C000000 		.word	.LC1
 650 012c 00000000 		.word	mainAreacontroller
 651 0130 00000000 		.word	mainActuators
 652 0134 00000000 		.word	.LANCHOR0
 653 0138 00000000 		.word	mainSensors
 654 013c 28000000 		.word	.LC2
 655 0140 5C000000 		.word	.LC3
 656              		.cfi_endproc
 657              	.LFE65:
 658              		.size	main, .-main
 659              		.comm	mainSensors,16,4
 660              		.comm	mainActuators,12,4
 661              		.comm	mainAreacontroller,8,4
 662              		.global	counterVal
 663              		.global	curAct
 664              		.global	wmode
 665              		.global	readyStatus
 666              		.global	curCount
 667              		.global	getDir
 668              		.comm	k,1,1
 669              		.global	commandBytes
 670              		.data
 671              		.set	.LANCHOR1,. + 0
 672              		.type	curAct, %object
 673              		.size	curAct, 1
 674              	curAct:
 675 0000 FF       		.byte	-1
 676              		.section	.rodata.str1.4,"aMS",%progbits,1
 677              		.align	2
 678              	.LC0:
 679 0000 2D4E414D 		.ascii	"-NAMEOF- Area Controller\000"
 679      454F462D 
 679      20417265 
 679      6120436F 
 679      6E74726F 
 680 0019 000000   		.space	3
 681              	.LC1:
ARM GAS  C:\Users\Kotori\AppData\Local\Temp\cccAZwYP.s 			page 18


 682 001c 53746172 		.ascii	"Starting: \000"
 682      74696E67 
 682      3A2000
 683 0027 00       		.space	1
 684              	.LC2:
 685 0028 7B202253 		.ascii	"{ \"SensId\" : %d, \"SensType\" : %d, \"SensVal\" :"
 685      656E7349 
 685      6422203A 
 685      2025642C 
 685      20225365 
 686 0055 20256420 		.ascii	" %d }\000"
 686      7D00
 687 005b 00       		.space	1
 688              	.LC3:
 689 005c 7B202241 		.ascii	"{ \"ACId\" : %d, \"ACNumActs\" : %d, \"ACNumSens\" "
 689      43496422 
 689      203A2025 
 689      642C2022 
 689      41434E75 
 690 0089 3A202564 		.ascii	": %d, \"ACDesc\" : %s }\000"
 690      2C202241 
 690      43446573 
 690      6322203A 
 690      20257320 
 691              		.bss
 692              		.align	2
 693              		.set	.LANCHOR0,. + 0
 694              		.type	wmode, %object
 695              		.size	wmode, 1
 696              	wmode:
 697 0000 00       		.space	1
 698              		.type	readyStatus, %object
 699              		.size	readyStatus, 1
 700              	readyStatus:
 701 0001 00       		.space	1
 702 0002 0000     		.space	2
 703              		.type	commandBytes, %object
 704              		.size	commandBytes, 16
 705              	commandBytes:
 706 0004 00000000 		.space	16
 706      00000000 
 706      00000000 
 706      00000000 
 707              		.type	curCount, %object
 708              		.size	curCount, 1
 709              	curCount:
 710 0014 00       		.space	1
 711              		.type	getDir, %object
 712              		.size	getDir, 1
 713              	getDir:
 714 0015 00       		.space	1
 715              		.type	counterVal, %object
 716              		.size	counterVal, 2
 717              	counterVal:
 718 0016 0000     		.space	2
 719              		.text
 720              	.Letext0:
ARM GAS  C:\Users\Kotori\AppData\Local\Temp\cccAZwYP.s 			page 19


 721              		.file 2 "c:\\program files (x86)\\cypress\\psoc creator\\4.2\\psoc creator\\import\\gnu\\arm\\5.4.
 722              		.file 3 "c:\\program files (x86)\\cypress\\psoc creator\\4.2\\psoc creator\\import\\gnu\\arm\\5.4.
 723              		.file 4 "Generated_Source\\PSoC5/cytypes.h"
 724              		.file 5 "devstruct.h"
 725              		.file 6 "Generated_Source\\PSoC5/core_cm3.h"
 726              		.file 7 "Generated_Source\\PSoC5/UART.h"
 727              		.file 8 "c:\\program files (x86)\\cypress\\psoc creator\\4.2\\psoc creator\\import\\gnu\\arm\\5.4.
 728              		.file 9 "Generated_Source\\PSoC5/TRIG.h"
 729              		.file 10 "Generated_Source\\PSoC5/CyLib.h"
 730              		.file 11 "Generated_Source\\PSoC5/ECHO_PIN.h"
 731              		.file 12 "Generated_Source\\PSoC5/HCSR04.h"
 732              		.file 13 "Generated_Source\\PSoC5/A_SENS.h"
 733              		.file 14 "Generated_Source\\PSoC5/ADC.h"
 734              		.file 15 "c:\\program files (x86)\\cypress\\psoc creator\\4.2\\psoc creator\\import\\gnu\\arm\\5.4
 735              		.file 16 "Generated_Source\\PSoC5/RxISR.h"
 736              		.file 17 "Generated_Source\\PSoC5/RGB_OUT.h"
 737              		.file 18 "stepctrl.h"