ARM GAS  C:\Users\Kotori\AppData\Local\Temp\ccoz1PtI.s 			page 1


   1              		.syntax unified
   2              		.cpu cortex-m3
   3              		.fpu softvfp
   4              		.eabi_attribute 20, 1
   5              		.eabi_attribute 21, 1
   6              		.eabi_attribute 23, 3
   7              		.eabi_attribute 24, 1
   8              		.eabi_attribute 25, 1
   9              		.eabi_attribute 26, 1
  10              		.eabi_attribute 30, 1
  11              		.eabi_attribute 34, 1
  12              		.eabi_attribute 18, 4
  13              		.thumb
  14              		.syntax unified
  15              		.file	"RGB_OUT.c"
  16              		.text
  17              	.Ltext0:
  18              		.cfi_sections	.debug_frame
  19              		.section	.text.RGB_OUT_Write,"ax",%progbits
  20              		.align	2
  21              		.global	RGB_OUT_Write
  22              		.thumb
  23              		.thumb_func
  24              		.type	RGB_OUT_Write, %function
  25              	RGB_OUT_Write:
  26              	.LFB0:
  27              		.file 1 "Generated_Source\\PSoC5\\RGB_OUT.c"
   1:Generated_Source\PSoC5/RGB_OUT.c **** /*******************************************************************************
   2:Generated_Source\PSoC5/RGB_OUT.c **** * File Name: RGB_OUT.c  
   3:Generated_Source\PSoC5/RGB_OUT.c **** * Version 2.20
   4:Generated_Source\PSoC5/RGB_OUT.c **** *
   5:Generated_Source\PSoC5/RGB_OUT.c **** * Description:
   6:Generated_Source\PSoC5/RGB_OUT.c **** *  This file contains API to enable firmware control of a Pins component.
   7:Generated_Source\PSoC5/RGB_OUT.c **** *
   8:Generated_Source\PSoC5/RGB_OUT.c **** * Note:
   9:Generated_Source\PSoC5/RGB_OUT.c **** *
  10:Generated_Source\PSoC5/RGB_OUT.c **** ********************************************************************************
  11:Generated_Source\PSoC5/RGB_OUT.c **** * Copyright 2008-2015, Cypress Semiconductor Corporation.  All rights reserved.
  12:Generated_Source\PSoC5/RGB_OUT.c **** * You may use this file only in accordance with the license, terms, conditions, 
  13:Generated_Source\PSoC5/RGB_OUT.c **** * disclaimers, and limitations in the end user license agreement accompanying 
  14:Generated_Source\PSoC5/RGB_OUT.c **** * the software package with which this file was provided.
  15:Generated_Source\PSoC5/RGB_OUT.c **** *******************************************************************************/
  16:Generated_Source\PSoC5/RGB_OUT.c **** 
  17:Generated_Source\PSoC5/RGB_OUT.c **** #include "cytypes.h"
  18:Generated_Source\PSoC5/RGB_OUT.c **** #include "RGB_OUT.h"
  19:Generated_Source\PSoC5/RGB_OUT.c **** 
  20:Generated_Source\PSoC5/RGB_OUT.c **** /* APIs are not generated for P15[7:6] on PSoC 5 */
  21:Generated_Source\PSoC5/RGB_OUT.c **** #if !(CY_PSOC5A &&\
  22:Generated_Source\PSoC5/RGB_OUT.c **** 	 RGB_OUT__PORT == 15 && ((RGB_OUT__MASK & 0xC0) != 0))
  23:Generated_Source\PSoC5/RGB_OUT.c **** 
  24:Generated_Source\PSoC5/RGB_OUT.c **** 
  25:Generated_Source\PSoC5/RGB_OUT.c **** /*******************************************************************************
  26:Generated_Source\PSoC5/RGB_OUT.c **** * Function Name: RGB_OUT_Write
  27:Generated_Source\PSoC5/RGB_OUT.c **** ****************************************************************************//**
  28:Generated_Source\PSoC5/RGB_OUT.c **** *
  29:Generated_Source\PSoC5/RGB_OUT.c **** * \brief Writes the value to the physical port (data output register), masking
  30:Generated_Source\PSoC5/RGB_OUT.c **** *  and shifting the bits appropriately. 
ARM GAS  C:\Users\Kotori\AppData\Local\Temp\ccoz1PtI.s 			page 2


  31:Generated_Source\PSoC5/RGB_OUT.c **** *
  32:Generated_Source\PSoC5/RGB_OUT.c **** * The data output register controls the signal applied to the physical pin in 
  33:Generated_Source\PSoC5/RGB_OUT.c **** * conjunction with the drive mode parameter. This function avoids changing 
  34:Generated_Source\PSoC5/RGB_OUT.c **** * other bits in the port by using the appropriate method (read-modify-write or
  35:Generated_Source\PSoC5/RGB_OUT.c **** * bit banding).
  36:Generated_Source\PSoC5/RGB_OUT.c **** *
  37:Generated_Source\PSoC5/RGB_OUT.c **** * <b>Note</b> This function should not be used on a hardware digital output pin 
  38:Generated_Source\PSoC5/RGB_OUT.c **** * as it is driven by the hardware signal attached to it.
  39:Generated_Source\PSoC5/RGB_OUT.c **** *
  40:Generated_Source\PSoC5/RGB_OUT.c **** * \param value
  41:Generated_Source\PSoC5/RGB_OUT.c **** *  Value to write to the component instance.
  42:Generated_Source\PSoC5/RGB_OUT.c **** *
  43:Generated_Source\PSoC5/RGB_OUT.c **** * \return 
  44:Generated_Source\PSoC5/RGB_OUT.c **** *  None 
  45:Generated_Source\PSoC5/RGB_OUT.c **** *
  46:Generated_Source\PSoC5/RGB_OUT.c **** * \sideeffect
  47:Generated_Source\PSoC5/RGB_OUT.c **** *  If you use read-modify-write operations that are not atomic; the Interrupt 
  48:Generated_Source\PSoC5/RGB_OUT.c **** *  Service Routines (ISR) can cause corruption of this function. An ISR that 
  49:Generated_Source\PSoC5/RGB_OUT.c **** *  interrupts this function and performs writes to the Pins component data 
  50:Generated_Source\PSoC5/RGB_OUT.c **** *  register can cause corrupted port data. To avoid this issue, you should 
  51:Generated_Source\PSoC5/RGB_OUT.c **** *  either use the Per-Pin APIs (primary method) or disable interrupts around 
  52:Generated_Source\PSoC5/RGB_OUT.c **** *  this function.
  53:Generated_Source\PSoC5/RGB_OUT.c **** *
  54:Generated_Source\PSoC5/RGB_OUT.c **** * \funcusage
  55:Generated_Source\PSoC5/RGB_OUT.c **** *  \snippet RGB_OUT_SUT.c usage_RGB_OUT_Write
  56:Generated_Source\PSoC5/RGB_OUT.c **** *******************************************************************************/
  57:Generated_Source\PSoC5/RGB_OUT.c **** void RGB_OUT_Write(uint8 value)
  58:Generated_Source\PSoC5/RGB_OUT.c **** {
  28              		.loc 1 58 0
  29              		.cfi_startproc
  30              		@ args = 0, pretend = 0, frame = 0
  31              		@ frame_needed = 0, uses_anonymous_args = 0
  32              		@ link register save eliminated.
  33              	.LVL0:
  59:Generated_Source\PSoC5/RGB_OUT.c ****     uint8 staticBits = (RGB_OUT_DR & (uint8)(~RGB_OUT_MASK));
  34              		.loc 1 59 0
  35 0000 044A     		ldr	r2, .L2
  36 0002 1378     		ldrb	r3, [r2]	@ zero_extendqisi2
  37 0004 03F08703 		and	r3, r3, #135
  38              	.LVL1:
  60:Generated_Source\PSoC5/RGB_OUT.c ****     RGB_OUT_DR = staticBits | ((uint8)(value << RGB_OUT_SHIFT) & RGB_OUT_MASK);
  39              		.loc 1 60 0
  40 0008 C000     		lsls	r0, r0, #3
  41              	.LVL2:
  42 000a 00F07800 		and	r0, r0, #120
  43 000e 1843     		orrs	r0, r0, r3
  44 0010 1070     		strb	r0, [r2]
  45 0012 7047     		bx	lr
  46              	.L3:
  47              		.align	2
  48              	.L2:
  49 0014 20510040 		.word	1073762592
  50              		.cfi_endproc
  51              	.LFE0:
  52              		.size	RGB_OUT_Write, .-RGB_OUT_Write
  53              		.section	.text.RGB_OUT_SetDriveMode,"ax",%progbits
  54              		.align	2
ARM GAS  C:\Users\Kotori\AppData\Local\Temp\ccoz1PtI.s 			page 3


  55              		.global	RGB_OUT_SetDriveMode
  56              		.thumb
  57              		.thumb_func
  58              		.type	RGB_OUT_SetDriveMode, %function
  59              	RGB_OUT_SetDriveMode:
  60              	.LFB1:
  61:Generated_Source\PSoC5/RGB_OUT.c **** }
  62:Generated_Source\PSoC5/RGB_OUT.c **** 
  63:Generated_Source\PSoC5/RGB_OUT.c **** 
  64:Generated_Source\PSoC5/RGB_OUT.c **** /*******************************************************************************
  65:Generated_Source\PSoC5/RGB_OUT.c **** * Function Name: RGB_OUT_SetDriveMode
  66:Generated_Source\PSoC5/RGB_OUT.c **** ****************************************************************************//**
  67:Generated_Source\PSoC5/RGB_OUT.c **** *
  68:Generated_Source\PSoC5/RGB_OUT.c **** * \brief Sets the drive mode for each of the Pins component's pins.
  69:Generated_Source\PSoC5/RGB_OUT.c **** * 
  70:Generated_Source\PSoC5/RGB_OUT.c **** * <b>Note</b> This affects all pins in the Pins component instance. Use the
  71:Generated_Source\PSoC5/RGB_OUT.c **** * Per-Pin APIs if you wish to control individual pin's drive modes.
  72:Generated_Source\PSoC5/RGB_OUT.c **** *
  73:Generated_Source\PSoC5/RGB_OUT.c **** * \param mode
  74:Generated_Source\PSoC5/RGB_OUT.c **** *  Mode for the selected signals. Valid options are documented in 
  75:Generated_Source\PSoC5/RGB_OUT.c **** *  \ref driveMode.
  76:Generated_Source\PSoC5/RGB_OUT.c **** *
  77:Generated_Source\PSoC5/RGB_OUT.c **** * \return
  78:Generated_Source\PSoC5/RGB_OUT.c **** *  None
  79:Generated_Source\PSoC5/RGB_OUT.c **** *
  80:Generated_Source\PSoC5/RGB_OUT.c **** * \sideeffect
  81:Generated_Source\PSoC5/RGB_OUT.c **** *  If you use read-modify-write operations that are not atomic, the ISR can
  82:Generated_Source\PSoC5/RGB_OUT.c **** *  cause corruption of this function. An ISR that interrupts this function 
  83:Generated_Source\PSoC5/RGB_OUT.c **** *  and performs writes to the Pins component Drive Mode registers can cause 
  84:Generated_Source\PSoC5/RGB_OUT.c **** *  corrupted port data. To avoid this issue, you should either use the Per-Pin
  85:Generated_Source\PSoC5/RGB_OUT.c **** *  APIs (primary method) or disable interrupts around this function.
  86:Generated_Source\PSoC5/RGB_OUT.c **** *
  87:Generated_Source\PSoC5/RGB_OUT.c **** * \funcusage
  88:Generated_Source\PSoC5/RGB_OUT.c **** *  \snippet RGB_OUT_SUT.c usage_RGB_OUT_SetDriveMode
  89:Generated_Source\PSoC5/RGB_OUT.c **** *******************************************************************************/
  90:Generated_Source\PSoC5/RGB_OUT.c **** void RGB_OUT_SetDriveMode(uint8 mode)
  91:Generated_Source\PSoC5/RGB_OUT.c **** {
  61              		.loc 1 91 0
  62              		.cfi_startproc
  63              		@ args = 0, pretend = 0, frame = 0
  64              		@ frame_needed = 0, uses_anonymous_args = 0
  65              		@ link register save eliminated.
  66              	.LVL3:
  92:Generated_Source\PSoC5/RGB_OUT.c **** 	CyPins_SetPinDriveMode(RGB_OUT_0, mode);
  67              		.loc 1 92 0
  68 0000 0D4A     		ldr	r2, .L5
  69 0002 1378     		ldrb	r3, [r2]	@ zero_extendqisi2
  70 0004 00F00E00 		and	r0, r0, #14
  71              	.LVL4:
  72 0008 03F0F103 		and	r3, r3, #241
  73 000c 0343     		orrs	r3, r3, r0
  74 000e 1370     		strb	r3, [r2]
  93:Generated_Source\PSoC5/RGB_OUT.c **** 	CyPins_SetPinDriveMode(RGB_OUT_1, mode);
  75              		.loc 1 93 0
  76 0010 0132     		adds	r2, r2, #1
  77 0012 1378     		ldrb	r3, [r2]	@ zero_extendqisi2
  78 0014 03F0F103 		and	r3, r3, #241
ARM GAS  C:\Users\Kotori\AppData\Local\Temp\ccoz1PtI.s 			page 4


  79 0018 0343     		orrs	r3, r3, r0
  80 001a 1370     		strb	r3, [r2]
  94:Generated_Source\PSoC5/RGB_OUT.c **** 	CyPins_SetPinDriveMode(RGB_OUT_2, mode);
  81              		.loc 1 94 0
  82 001c 0132     		adds	r2, r2, #1
  83 001e 1378     		ldrb	r3, [r2]	@ zero_extendqisi2
  84 0020 03F0F103 		and	r3, r3, #241
  85 0024 0343     		orrs	r3, r3, r0
  86 0026 1370     		strb	r3, [r2]
  95:Generated_Source\PSoC5/RGB_OUT.c **** 	CyPins_SetPinDriveMode(RGB_OUT_3, mode);
  87              		.loc 1 95 0
  88 0028 0132     		adds	r2, r2, #1
  89 002a 1378     		ldrb	r3, [r2]	@ zero_extendqisi2
  90 002c 03F0F103 		and	r3, r3, #241
  91 0030 1843     		orrs	r0, r0, r3
  92 0032 1070     		strb	r0, [r2]
  93 0034 7047     		bx	lr
  94              	.L6:
  95 0036 00BF     		.align	2
  96              	.L5:
  97 0038 13500040 		.word	1073762323
  98              		.cfi_endproc
  99              	.LFE1:
 100              		.size	RGB_OUT_SetDriveMode, .-RGB_OUT_SetDriveMode
 101              		.section	.text.RGB_OUT_Read,"ax",%progbits
 102              		.align	2
 103              		.global	RGB_OUT_Read
 104              		.thumb
 105              		.thumb_func
 106              		.type	RGB_OUT_Read, %function
 107              	RGB_OUT_Read:
 108              	.LFB2:
  96:Generated_Source\PSoC5/RGB_OUT.c **** }
  97:Generated_Source\PSoC5/RGB_OUT.c **** 
  98:Generated_Source\PSoC5/RGB_OUT.c **** 
  99:Generated_Source\PSoC5/RGB_OUT.c **** /*******************************************************************************
 100:Generated_Source\PSoC5/RGB_OUT.c **** * Function Name: RGB_OUT_Read
 101:Generated_Source\PSoC5/RGB_OUT.c **** ****************************************************************************//**
 102:Generated_Source\PSoC5/RGB_OUT.c **** *
 103:Generated_Source\PSoC5/RGB_OUT.c **** * \brief Reads the associated physical port (pin status register) and masks 
 104:Generated_Source\PSoC5/RGB_OUT.c **** *  the required bits according to the width and bit position of the component
 105:Generated_Source\PSoC5/RGB_OUT.c **** *  instance. 
 106:Generated_Source\PSoC5/RGB_OUT.c **** *
 107:Generated_Source\PSoC5/RGB_OUT.c **** * The pin's status register returns the current logic level present on the 
 108:Generated_Source\PSoC5/RGB_OUT.c **** * physical pin.
 109:Generated_Source\PSoC5/RGB_OUT.c **** *
 110:Generated_Source\PSoC5/RGB_OUT.c **** * \return 
 111:Generated_Source\PSoC5/RGB_OUT.c **** *  The current value for the pins in the component as a right justified number.
 112:Generated_Source\PSoC5/RGB_OUT.c **** *
 113:Generated_Source\PSoC5/RGB_OUT.c **** * \funcusage
 114:Generated_Source\PSoC5/RGB_OUT.c **** *  \snippet RGB_OUT_SUT.c usage_RGB_OUT_Read  
 115:Generated_Source\PSoC5/RGB_OUT.c **** *******************************************************************************/
 116:Generated_Source\PSoC5/RGB_OUT.c **** uint8 RGB_OUT_Read(void)
 117:Generated_Source\PSoC5/RGB_OUT.c **** {
 109              		.loc 1 117 0
 110              		.cfi_startproc
 111              		@ args = 0, pretend = 0, frame = 0
ARM GAS  C:\Users\Kotori\AppData\Local\Temp\ccoz1PtI.s 			page 5


 112              		@ frame_needed = 0, uses_anonymous_args = 0
 113              		@ link register save eliminated.
 118:Generated_Source\PSoC5/RGB_OUT.c ****     return (RGB_OUT_PS & RGB_OUT_MASK) >> RGB_OUT_SHIFT;
 114              		.loc 1 118 0
 115 0000 024B     		ldr	r3, .L8
 116 0002 1878     		ldrb	r0, [r3]	@ zero_extendqisi2
 119:Generated_Source\PSoC5/RGB_OUT.c **** }
 117              		.loc 1 119 0
 118 0004 C0F3C300 		ubfx	r0, r0, #3, #4
 119 0008 7047     		bx	lr
 120              	.L9:
 121 000a 00BF     		.align	2
 122              	.L8:
 123 000c 21510040 		.word	1073762593
 124              		.cfi_endproc
 125              	.LFE2:
 126              		.size	RGB_OUT_Read, .-RGB_OUT_Read
 127              		.section	.text.RGB_OUT_ReadDataReg,"ax",%progbits
 128              		.align	2
 129              		.global	RGB_OUT_ReadDataReg
 130              		.thumb
 131              		.thumb_func
 132              		.type	RGB_OUT_ReadDataReg, %function
 133              	RGB_OUT_ReadDataReg:
 134              	.LFB3:
 120:Generated_Source\PSoC5/RGB_OUT.c **** 
 121:Generated_Source\PSoC5/RGB_OUT.c **** 
 122:Generated_Source\PSoC5/RGB_OUT.c **** /*******************************************************************************
 123:Generated_Source\PSoC5/RGB_OUT.c **** * Function Name: RGB_OUT_ReadDataReg
 124:Generated_Source\PSoC5/RGB_OUT.c **** ****************************************************************************//**
 125:Generated_Source\PSoC5/RGB_OUT.c **** *
 126:Generated_Source\PSoC5/RGB_OUT.c **** * \brief Reads the associated physical port's data output register and masks 
 127:Generated_Source\PSoC5/RGB_OUT.c **** *  the correct bits according to the width and bit position of the component 
 128:Generated_Source\PSoC5/RGB_OUT.c **** *  instance. 
 129:Generated_Source\PSoC5/RGB_OUT.c **** *
 130:Generated_Source\PSoC5/RGB_OUT.c **** * The data output register controls the signal applied to the physical pin in 
 131:Generated_Source\PSoC5/RGB_OUT.c **** * conjunction with the drive mode parameter. This is not the same as the 
 132:Generated_Source\PSoC5/RGB_OUT.c **** * preferred RGB_OUT_Read() API because the 
 133:Generated_Source\PSoC5/RGB_OUT.c **** * RGB_OUT_ReadDataReg() reads the data register instead of the status 
 134:Generated_Source\PSoC5/RGB_OUT.c **** * register. For output pins this is a useful function to determine the value 
 135:Generated_Source\PSoC5/RGB_OUT.c **** * just written to the pin.
 136:Generated_Source\PSoC5/RGB_OUT.c **** *
 137:Generated_Source\PSoC5/RGB_OUT.c **** * \return 
 138:Generated_Source\PSoC5/RGB_OUT.c **** *  The current value of the data register masked and shifted into a right 
 139:Generated_Source\PSoC5/RGB_OUT.c **** *  justified number for the component instance.
 140:Generated_Source\PSoC5/RGB_OUT.c **** *
 141:Generated_Source\PSoC5/RGB_OUT.c **** * \funcusage
 142:Generated_Source\PSoC5/RGB_OUT.c **** *  \snippet RGB_OUT_SUT.c usage_RGB_OUT_ReadDataReg 
 143:Generated_Source\PSoC5/RGB_OUT.c **** *******************************************************************************/
 144:Generated_Source\PSoC5/RGB_OUT.c **** uint8 RGB_OUT_ReadDataReg(void)
 145:Generated_Source\PSoC5/RGB_OUT.c **** {
 135              		.loc 1 145 0
 136              		.cfi_startproc
 137              		@ args = 0, pretend = 0, frame = 0
 138              		@ frame_needed = 0, uses_anonymous_args = 0
 139              		@ link register save eliminated.
 146:Generated_Source\PSoC5/RGB_OUT.c ****     return (RGB_OUT_DR & RGB_OUT_MASK) >> RGB_OUT_SHIFT;
ARM GAS  C:\Users\Kotori\AppData\Local\Temp\ccoz1PtI.s 			page 6


 140              		.loc 1 146 0
 141 0000 024B     		ldr	r3, .L11
 142 0002 1878     		ldrb	r0, [r3]	@ zero_extendqisi2
 147:Generated_Source\PSoC5/RGB_OUT.c **** }
 143              		.loc 1 147 0
 144 0004 C0F3C300 		ubfx	r0, r0, #3, #4
 145 0008 7047     		bx	lr
 146              	.L12:
 147 000a 00BF     		.align	2
 148              	.L11:
 149 000c 20510040 		.word	1073762592
 150              		.cfi_endproc
 151              	.LFE3:
 152              		.size	RGB_OUT_ReadDataReg, .-RGB_OUT_ReadDataReg
 153              		.text
 154              	.Letext0:
 155              		.file 2 "Generated_Source\\PSoC5\\cytypes.h"